
target/build/Clang-18-x86_64-pc-linux-gnu/kernel_main:     file format elf64-x86-64


Disassembly of section .text:

00000000000021c0 <interrupt_common>:

    // Clear the direction flag.  Without this, uses of string
    // instructions, e.g. REP MOVS in memcpy() or inlined by the compiler,
    // can go wrong and copy in the wrong direction, since this code may
    // assume that the direction flag is unset.
    cld
    21c0:	fc                   	cld
    // Later on we're going to calculate the percpu pointer using dead reckoning
    // from %rsp so keep track of what all has been pushed onto the stack.
    //
    // At this point the stack contains 7 qwords.  5 or 6 pushed by the interrupt
    // and 2 or 1 pushed by the stub.
    save_general_registers
    21c1:	41 57                	push   %r15
    21c3:	41 56                	push   %r14
    21c5:	41 55                	push   %r13
    21c7:	41 54                	push   %r12
    21c9:	41 53                	push   %r11
    21cb:	41 52                	push   %r10
    21cd:	41 51                	push   %r9
    21cf:	41 50                	push   %r8
    21d1:	50                   	push   %rax
    21d2:	51                   	push   %rcx
    21d3:	52                   	push   %rdx
    21d4:	53                   	push   %rbx
    21d5:	55                   	push   %rbp
    21d6:	56                   	push   %rsi
    21d7:	57                   	push   %rdi
    // Zero general-purpose registers to constrain speculative execution with
    // potentially-hostile register values; the values may have come from user
    // mode and could be consumed by in-kernel speculative execution.
    // Zeroing of ebp is delayed till we check precisely if this was a user fault
    // so that kernel faults can have correct stack frames for backtraces.
    zero_general_registers
    21d8:	31 c0                	xor    %eax,%eax
    21da:	31 db                	xor    %ebx,%ebx
    21dc:	31 c9                	xor    %ecx,%ecx
    21de:	31 d2                	xor    %edx,%edx
    21e0:	31 f6                	xor    %esi,%esi
    21e2:	31 ff                	xor    %edi,%edi
    21e4:	4d 31 c0             	xor    %r8,%r8
    21e7:	4d 31 c9             	xor    %r9,%r9
    21ea:	4d 31 d2             	xor    %r10,%r10
    21ed:	4d 31 db             	xor    %r11,%r11
    21f0:	4d 31 e4             	xor    %r12,%r12
    21f3:	4d 31 ed             	xor    %r13,%r13
    21f6:	4d 31 f6             	xor    %r14,%r14
    21f9:	4d 31 ff             	xor    %r15,%r15

    // At this point the stack contains a complete Iframe.

    // Pass the Iframe in %rdi.
    movq %rsp, %rdi
    21fc:	48 89 e7             	mov    %rsp,%rdi

    // Check to see if we came from user space by testing the CPL in the
    // %cs selector that was saved on the stack automatically.  Check for != 0.
    testb $3, X86_IRQFRAME_OFFSET_CS(%rsp)
    21ff:	f6 84 24 90 00 00 00 	testb  $0x3,0x90(%rsp)
    2206:	03 
    jz 1f
    2207:	74 05                	je     220e <interrupt_common+0x4e>

    // Perform the last zero from the previous block now that we know this is a
    // user fault and we do not need the stack frame.
    xorl %ebp, %ebp
    2209:	31 ed                	xor    %ebp,%ebp
    // Swap %gs.base to kernel space.
    swapgs
    220b:	0f 01 f8             	swapgs
1:
    // Mitigates the swapgs bug. See <arch/code-patches/case-id.h>.
    // .code_patching.start CASE_ID_SWAPGS_MITIGATION
    lfence
    220e:	0f ae e8             	lfence
    // .code_patching.end

    call arch_handle_exception
    2211:	e8 aa 1f 00 00       	call   41c0 <arch_handle_exception>

    // Check if we're returning to user space as per before.
    testb $3, X86_IRQFRAME_OFFSET_CS(%rsp)
    2216:	f6 84 24 90 00 00 00 	testb  $0x3,0x90(%rsp)
    221d:	03 
    jz    1f
    221e:	74 03                	je     2223 <interrupt_common+0x63>

    // Swap gs_base back to user space.
    swapgs
    2220:	0f 01 f8             	swapgs
1:
    lfence
    2223:	0f ae e8             	lfence

.Lcommon_return:
    // Restore general purpose registers.
    restore_general_registers
    2226:	5f                   	pop    %rdi
    2227:	5e                   	pop    %rsi
    2228:	5d                   	pop    %rbp
    2229:	5b                   	pop    %rbx
    222a:	5a                   	pop    %rdx
    222b:	59                   	pop    %rcx
    222c:	58                   	pop    %rax
    222d:	41 58                	pop    %r8
    222f:	41 59                	pop    %r9
    2231:	41 5a                	pop    %r10
    2233:	41 5b                	pop    %r11
    2235:	41 5c                	pop    %r12
    2237:	41 5d                	pop    %r13
    2239:	41 5e                	pop    %r14
    223b:	41 5f                	pop    %r15

    // Drop vector number and error code.
    add_to_sp 16
    223d:	48 83 c4 10          	add    $0x10,%rsp

    iretq
    2241:	48 cf                	iretq
    2243:	66 2e 0f 1f 84 00 00 	cs nopw 0x0(%rax,%rax,1)
    224a:	00 00 00 
    224d:	66 2e 0f 1f 84 00 00 	cs nopw 0x0(%rax,%rax,1)
    2254:	00 00 00 
    2257:	66 2e 0f 1f 84 00 00 	cs nopw 0x0(%rax,%rax,1)
    225e:	00 00 00 
    2261:	66 2e 0f 1f 84 00 00 	cs nopw 0x0(%rax,%rax,1)
    2268:	00 00 00 
    226b:	66 2e 0f 1f 84 00 00 	cs nopw 0x0(%rax,%rax,1)
    2272:	00 00 00 
    2275:	66 2e 0f 1f 84 00 00 	cs nopw 0x0(%rax,%rax,1)
    227c:	00 00 00 
    227f:	90                   	nop

0000000000002280 <isr.dispatch.2.is.not.the.isr.number>:

.section .data.rel.ro.idt, "aw", %progbits
.balign PAGE_SIZE
.label g_idt, global, object
    isr.current = 0
    .rept 256
    2280:	0f 01 ca             	clac
    2283:	6a 00                	push   $0x0
    2285:	6a 00                	push   $0x0
    2287:	e9 34 ff ff ff       	jmp    21c0 <interrupt_common>
    228c:	cc                   	int3

000000000000228d <isr.dispatch.17.is.not.the.isr.number>:
    228d:	0f 01 ca             	clac
    2290:	6a 00                	push   $0x0
    2292:	6a 01                	push   $0x1
    2294:	e9 27 ff ff ff       	jmp    21c0 <interrupt_common>
    2299:	cc                   	int3

000000000000229a <isr.dispatch.32.is.not.the.isr.number>:
    229a:	0f 01 ca             	clac
    229d:	6a 00                	push   $0x0
    229f:	6a 02                	push   $0x2
    22a1:	e9 1a ff ff ff       	jmp    21c0 <interrupt_common>
    22a6:	cc                   	int3

00000000000022a7 <isr.dispatch.47.is.not.the.isr.number>:
    22a7:	0f 01 ca             	clac
    22aa:	6a 00                	push   $0x0
    22ac:	6a 03                	push   $0x3
    22ae:	e9 0d ff ff ff       	jmp    21c0 <interrupt_common>
    22b3:	cc                   	int3

00000000000022b4 <isr.dispatch.62.is.not.the.isr.number>:
    22b4:	0f 01 ca             	clac
    22b7:	6a 00                	push   $0x0
    22b9:	6a 04                	push   $0x4
    22bb:	e9 00 ff ff ff       	jmp    21c0 <interrupt_common>
    22c0:	cc                   	int3

00000000000022c1 <isr.dispatch.77.is.not.the.isr.number>:
    22c1:	0f 01 ca             	clac
    22c4:	6a 00                	push   $0x0
    22c6:	6a 05                	push   $0x5
    22c8:	e9 f3 fe ff ff       	jmp    21c0 <interrupt_common>
    22cd:	cc                   	int3

00000000000022ce <isr.dispatch.92.is.not.the.isr.number>:
    22ce:	0f 01 ca             	clac
    22d1:	6a 00                	push   $0x0
    22d3:	6a 06                	push   $0x6
    22d5:	e9 e6 fe ff ff       	jmp    21c0 <interrupt_common>
    22da:	cc                   	int3

00000000000022db <isr.dispatch.107.is.not.the.isr.number>:
    22db:	0f 01 ca             	clac
    22de:	6a 00                	push   $0x0
    22e0:	6a 07                	push   $0x7
    22e2:	e9 d9 fe ff ff       	jmp    21c0 <interrupt_common>
    22e7:	cc                   	int3

00000000000022e8 <isr.dispatch.122.is.not.the.isr.number>:
    22e8:	0f 01 ca             	clac
    22eb:	6a 08                	push   $0x8
    22ed:	e9 ce fe ff ff       	jmp    21c0 <interrupt_common>
    22f2:	cc                   	int3

00000000000022f3 <isr.dispatch.136.is.not.the.isr.number>:
    22f3:	0f 01 ca             	clac
    22f6:	6a 00                	push   $0x0
    22f8:	6a 09                	push   $0x9
    22fa:	e9 c1 fe ff ff       	jmp    21c0 <interrupt_common>
    22ff:	cc                   	int3

0000000000002300 <isr.dispatch.151.is.not.the.isr.number>:
    2300:	0f 01 ca             	clac
    2303:	6a 0a                	push   $0xa
    2305:	e9 b6 fe ff ff       	jmp    21c0 <interrupt_common>
    230a:	cc                   	int3

000000000000230b <isr.dispatch.165.is.not.the.isr.number>:
    230b:	0f 01 ca             	clac
    230e:	6a 0b                	push   $0xb
    2310:	e9 ab fe ff ff       	jmp    21c0 <interrupt_common>
    2315:	cc                   	int3

0000000000002316 <isr.dispatch.179.is.not.the.isr.number>:
    2316:	0f 01 ca             	clac
    2319:	6a 0c                	push   $0xc
    231b:	e9 a0 fe ff ff       	jmp    21c0 <interrupt_common>
    2320:	cc                   	int3

0000000000002321 <isr.dispatch.193.is.not.the.isr.number>:
    2321:	0f 01 ca             	clac
    2324:	6a 0d                	push   $0xd
    2326:	e9 95 fe ff ff       	jmp    21c0 <interrupt_common>
    232b:	cc                   	int3

000000000000232c <isr.dispatch.207.is.not.the.isr.number>:
    232c:	0f 01 ca             	clac
    232f:	6a 0e                	push   $0xe
    2331:	e9 8a fe ff ff       	jmp    21c0 <interrupt_common>
    2336:	cc                   	int3

0000000000002337 <isr.dispatch.221.is.not.the.isr.number>:
    2337:	0f 01 ca             	clac
    233a:	6a 00                	push   $0x0
    233c:	6a 0f                	push   $0xf
    233e:	e9 7d fe ff ff       	jmp    21c0 <interrupt_common>
    2343:	cc                   	int3

0000000000002344 <isr.dispatch.236.is.not.the.isr.number>:
    2344:	0f 01 ca             	clac
    2347:	6a 00                	push   $0x0
    2349:	6a 10                	push   $0x10
    234b:	e9 70 fe ff ff       	jmp    21c0 <interrupt_common>
    2350:	cc                   	int3

0000000000002351 <isr.dispatch.251.is.not.the.isr.number>:
    2351:	0f 01 ca             	clac
    2354:	6a 11                	push   $0x11
    2356:	e9 65 fe ff ff       	jmp    21c0 <interrupt_common>
    235b:	cc                   	int3

000000000000235c <isr.dispatch.265.is.not.the.isr.number>:
    235c:	0f 01 ca             	clac
    235f:	6a 00                	push   $0x0
    2361:	6a 12                	push   $0x12
    2363:	e9 58 fe ff ff       	jmp    21c0 <interrupt_common>
    2368:	cc                   	int3

0000000000002369 <isr.dispatch.280.is.not.the.isr.number>:
    2369:	0f 01 ca             	clac
    236c:	6a 00                	push   $0x0
    236e:	6a 13                	push   $0x13
    2370:	e9 4b fe ff ff       	jmp    21c0 <interrupt_common>
    2375:	cc                   	int3

0000000000002376 <isr.dispatch.295.is.not.the.isr.number>:
    2376:	0f 01 ca             	clac
    2379:	6a 00                	push   $0x0
    237b:	6a 14                	push   $0x14
    237d:	e9 3e fe ff ff       	jmp    21c0 <interrupt_common>
    2382:	cc                   	int3

0000000000002383 <isr.dispatch.310.is.not.the.isr.number>:
    2383:	0f 01 ca             	clac
    2386:	6a 00                	push   $0x0
    2388:	6a 15                	push   $0x15
    238a:	e9 31 fe ff ff       	jmp    21c0 <interrupt_common>
    238f:	cc                   	int3

0000000000002390 <isr.dispatch.325.is.not.the.isr.number>:
    2390:	0f 01 ca             	clac
    2393:	6a 00                	push   $0x0
    2395:	6a 16                	push   $0x16
    2397:	e9 24 fe ff ff       	jmp    21c0 <interrupt_common>
    239c:	cc                   	int3

000000000000239d <isr.dispatch.340.is.not.the.isr.number>:
    239d:	0f 01 ca             	clac
    23a0:	6a 00                	push   $0x0
    23a2:	6a 17                	push   $0x17
    23a4:	e9 17 fe ff ff       	jmp    21c0 <interrupt_common>
    23a9:	cc                   	int3

00000000000023aa <isr.dispatch.355.is.not.the.isr.number>:
    23aa:	0f 01 ca             	clac
    23ad:	6a 00                	push   $0x0
    23af:	6a 18                	push   $0x18
    23b1:	e9 0a fe ff ff       	jmp    21c0 <interrupt_common>
    23b6:	cc                   	int3

00000000000023b7 <isr.dispatch.370.is.not.the.isr.number>:
    23b7:	0f 01 ca             	clac
    23ba:	6a 00                	push   $0x0
    23bc:	6a 19                	push   $0x19
    23be:	e9 fd fd ff ff       	jmp    21c0 <interrupt_common>
    23c3:	cc                   	int3

00000000000023c4 <isr.dispatch.385.is.not.the.isr.number>:
    23c4:	0f 01 ca             	clac
    23c7:	6a 00                	push   $0x0
    23c9:	6a 1a                	push   $0x1a
    23cb:	e9 f0 fd ff ff       	jmp    21c0 <interrupt_common>
    23d0:	cc                   	int3

00000000000023d1 <isr.dispatch.400.is.not.the.isr.number>:
    23d1:	0f 01 ca             	clac
    23d4:	6a 00                	push   $0x0
    23d6:	6a 1b                	push   $0x1b
    23d8:	e9 e3 fd ff ff       	jmp    21c0 <interrupt_common>
    23dd:	cc                   	int3

00000000000023de <isr.dispatch.415.is.not.the.isr.number>:
    23de:	0f 01 ca             	clac
    23e1:	6a 00                	push   $0x0
    23e3:	6a 1c                	push   $0x1c
    23e5:	e9 d6 fd ff ff       	jmp    21c0 <interrupt_common>
    23ea:	cc                   	int3

00000000000023eb <isr.dispatch.430.is.not.the.isr.number>:
    23eb:	0f 01 ca             	clac
    23ee:	6a 00                	push   $0x0
    23f0:	6a 1d                	push   $0x1d
    23f2:	e9 c9 fd ff ff       	jmp    21c0 <interrupt_common>
    23f7:	cc                   	int3

00000000000023f8 <isr.dispatch.445.is.not.the.isr.number>:
    23f8:	0f 01 ca             	clac
    23fb:	6a 00                	push   $0x0
    23fd:	6a 1e                	push   $0x1e
    23ff:	e9 bc fd ff ff       	jmp    21c0 <interrupt_common>
    2404:	cc                   	int3

0000000000002405 <isr.dispatch.460.is.not.the.isr.number>:
    2405:	0f 01 ca             	clac
    2408:	6a 00                	push   $0x0
    240a:	6a 1f                	push   $0x1f
    240c:	e9 af fd ff ff       	jmp    21c0 <interrupt_common>
    2411:	cc                   	int3

0000000000002412 <isr.dispatch.475.is.not.the.isr.number>:
    2412:	0f 01 ca             	clac
    2415:	6a 00                	push   $0x0
    2417:	6a 20                	push   $0x20
    2419:	e9 a2 fd ff ff       	jmp    21c0 <interrupt_common>
    241e:	cc                   	int3

000000000000241f <isr.dispatch.490.is.not.the.isr.number>:
    241f:	0f 01 ca             	clac
    2422:	6a 00                	push   $0x0
    2424:	6a 21                	push   $0x21
    2426:	e9 95 fd ff ff       	jmp    21c0 <interrupt_common>
    242b:	cc                   	int3

000000000000242c <isr.dispatch.505.is.not.the.isr.number>:
    242c:	0f 01 ca             	clac
    242f:	6a 00                	push   $0x0
    2431:	6a 22                	push   $0x22
    2433:	e9 88 fd ff ff       	jmp    21c0 <interrupt_common>
    2438:	cc                   	int3

0000000000002439 <isr.dispatch.520.is.not.the.isr.number>:
    2439:	0f 01 ca             	clac
    243c:	6a 00                	push   $0x0
    243e:	6a 23                	push   $0x23
    2440:	e9 7b fd ff ff       	jmp    21c0 <interrupt_common>
    2445:	cc                   	int3

0000000000002446 <isr.dispatch.535.is.not.the.isr.number>:
    2446:	0f 01 ca             	clac
    2449:	6a 00                	push   $0x0
    244b:	6a 24                	push   $0x24
    244d:	e9 6e fd ff ff       	jmp    21c0 <interrupt_common>
    2452:	cc                   	int3

0000000000002453 <isr.dispatch.550.is.not.the.isr.number>:
    2453:	0f 01 ca             	clac
    2456:	6a 00                	push   $0x0
    2458:	6a 25                	push   $0x25
    245a:	e9 61 fd ff ff       	jmp    21c0 <interrupt_common>
    245f:	cc                   	int3

0000000000002460 <isr.dispatch.565.is.not.the.isr.number>:
    2460:	0f 01 ca             	clac
    2463:	6a 00                	push   $0x0
    2465:	6a 26                	push   $0x26
    2467:	e9 54 fd ff ff       	jmp    21c0 <interrupt_common>
    246c:	cc                   	int3

000000000000246d <isr.dispatch.580.is.not.the.isr.number>:
    246d:	0f 01 ca             	clac
    2470:	6a 00                	push   $0x0
    2472:	6a 27                	push   $0x27
    2474:	e9 47 fd ff ff       	jmp    21c0 <interrupt_common>
    2479:	cc                   	int3

000000000000247a <isr.dispatch.595.is.not.the.isr.number>:
    247a:	0f 01 ca             	clac
    247d:	6a 00                	push   $0x0
    247f:	6a 28                	push   $0x28
    2481:	e9 3a fd ff ff       	jmp    21c0 <interrupt_common>
    2486:	cc                   	int3

0000000000002487 <isr.dispatch.610.is.not.the.isr.number>:
    2487:	0f 01 ca             	clac
    248a:	6a 00                	push   $0x0
    248c:	6a 29                	push   $0x29
    248e:	e9 2d fd ff ff       	jmp    21c0 <interrupt_common>
    2493:	cc                   	int3

0000000000002494 <isr.dispatch.625.is.not.the.isr.number>:
    2494:	0f 01 ca             	clac
    2497:	6a 00                	push   $0x0
    2499:	6a 2a                	push   $0x2a
    249b:	e9 20 fd ff ff       	jmp    21c0 <interrupt_common>
    24a0:	cc                   	int3

00000000000024a1 <isr.dispatch.640.is.not.the.isr.number>:
    24a1:	0f 01 ca             	clac
    24a4:	6a 00                	push   $0x0
    24a6:	6a 2b                	push   $0x2b
    24a8:	e9 13 fd ff ff       	jmp    21c0 <interrupt_common>
    24ad:	cc                   	int3

00000000000024ae <isr.dispatch.655.is.not.the.isr.number>:
    24ae:	0f 01 ca             	clac
    24b1:	6a 00                	push   $0x0
    24b3:	6a 2c                	push   $0x2c
    24b5:	e9 06 fd ff ff       	jmp    21c0 <interrupt_common>
    24ba:	cc                   	int3

00000000000024bb <isr.dispatch.670.is.not.the.isr.number>:
    24bb:	0f 01 ca             	clac
    24be:	6a 00                	push   $0x0
    24c0:	6a 2d                	push   $0x2d
    24c2:	e9 f9 fc ff ff       	jmp    21c0 <interrupt_common>
    24c7:	cc                   	int3

00000000000024c8 <isr.dispatch.685.is.not.the.isr.number>:
    24c8:	0f 01 ca             	clac
    24cb:	6a 00                	push   $0x0
    24cd:	6a 2e                	push   $0x2e
    24cf:	e9 ec fc ff ff       	jmp    21c0 <interrupt_common>
    24d4:	cc                   	int3

00000000000024d5 <isr.dispatch.700.is.not.the.isr.number>:
    24d5:	0f 01 ca             	clac
    24d8:	6a 00                	push   $0x0
    24da:	6a 2f                	push   $0x2f
    24dc:	e9 df fc ff ff       	jmp    21c0 <interrupt_common>
    24e1:	cc                   	int3

00000000000024e2 <isr.dispatch.715.is.not.the.isr.number>:
    24e2:	0f 01 ca             	clac
    24e5:	6a 00                	push   $0x0
    24e7:	6a 30                	push   $0x30
    24e9:	e9 d2 fc ff ff       	jmp    21c0 <interrupt_common>
    24ee:	cc                   	int3

00000000000024ef <isr.dispatch.730.is.not.the.isr.number>:
    24ef:	0f 01 ca             	clac
    24f2:	6a 00                	push   $0x0
    24f4:	6a 31                	push   $0x31
    24f6:	e9 c5 fc ff ff       	jmp    21c0 <interrupt_common>
    24fb:	cc                   	int3

00000000000024fc <isr.dispatch.745.is.not.the.isr.number>:
    24fc:	0f 01 ca             	clac
    24ff:	6a 00                	push   $0x0
    2501:	6a 32                	push   $0x32
    2503:	e9 b8 fc ff ff       	jmp    21c0 <interrupt_common>
    2508:	cc                   	int3

0000000000002509 <isr.dispatch.760.is.not.the.isr.number>:
    2509:	0f 01 ca             	clac
    250c:	6a 00                	push   $0x0
    250e:	6a 33                	push   $0x33
    2510:	e9 ab fc ff ff       	jmp    21c0 <interrupt_common>
    2515:	cc                   	int3

0000000000002516 <isr.dispatch.775.is.not.the.isr.number>:
    2516:	0f 01 ca             	clac
    2519:	6a 00                	push   $0x0
    251b:	6a 34                	push   $0x34
    251d:	e9 9e fc ff ff       	jmp    21c0 <interrupt_common>
    2522:	cc                   	int3

0000000000002523 <isr.dispatch.790.is.not.the.isr.number>:
    2523:	0f 01 ca             	clac
    2526:	6a 00                	push   $0x0
    2528:	6a 35                	push   $0x35
    252a:	e9 91 fc ff ff       	jmp    21c0 <interrupt_common>
    252f:	cc                   	int3

0000000000002530 <isr.dispatch.805.is.not.the.isr.number>:
    2530:	0f 01 ca             	clac
    2533:	6a 00                	push   $0x0
    2535:	6a 36                	push   $0x36
    2537:	e9 84 fc ff ff       	jmp    21c0 <interrupt_common>
    253c:	cc                   	int3

000000000000253d <isr.dispatch.820.is.not.the.isr.number>:
    253d:	0f 01 ca             	clac
    2540:	6a 00                	push   $0x0
    2542:	6a 37                	push   $0x37
    2544:	e9 77 fc ff ff       	jmp    21c0 <interrupt_common>
    2549:	cc                   	int3

000000000000254a <isr.dispatch.835.is.not.the.isr.number>:
    254a:	0f 01 ca             	clac
    254d:	6a 00                	push   $0x0
    254f:	6a 38                	push   $0x38
    2551:	e9 6a fc ff ff       	jmp    21c0 <interrupt_common>
    2556:	cc                   	int3

0000000000002557 <isr.dispatch.850.is.not.the.isr.number>:
    2557:	0f 01 ca             	clac
    255a:	6a 00                	push   $0x0
    255c:	6a 39                	push   $0x39
    255e:	e9 5d fc ff ff       	jmp    21c0 <interrupt_common>
    2563:	cc                   	int3

0000000000002564 <isr.dispatch.865.is.not.the.isr.number>:
    2564:	0f 01 ca             	clac
    2567:	6a 00                	push   $0x0
    2569:	6a 3a                	push   $0x3a
    256b:	e9 50 fc ff ff       	jmp    21c0 <interrupt_common>
    2570:	cc                   	int3

0000000000002571 <isr.dispatch.880.is.not.the.isr.number>:
    2571:	0f 01 ca             	clac
    2574:	6a 00                	push   $0x0
    2576:	6a 3b                	push   $0x3b
    2578:	e9 43 fc ff ff       	jmp    21c0 <interrupt_common>
    257d:	cc                   	int3

000000000000257e <isr.dispatch.895.is.not.the.isr.number>:
    257e:	0f 01 ca             	clac
    2581:	6a 00                	push   $0x0
    2583:	6a 3c                	push   $0x3c
    2585:	e9 36 fc ff ff       	jmp    21c0 <interrupt_common>
    258a:	cc                   	int3

000000000000258b <isr.dispatch.910.is.not.the.isr.number>:
    258b:	0f 01 ca             	clac
    258e:	6a 00                	push   $0x0
    2590:	6a 3d                	push   $0x3d
    2592:	e9 29 fc ff ff       	jmp    21c0 <interrupt_common>
    2597:	cc                   	int3

0000000000002598 <isr.dispatch.925.is.not.the.isr.number>:
    2598:	0f 01 ca             	clac
    259b:	6a 00                	push   $0x0
    259d:	6a 3e                	push   $0x3e
    259f:	e9 1c fc ff ff       	jmp    21c0 <interrupt_common>
    25a4:	cc                   	int3

00000000000025a5 <isr.dispatch.940.is.not.the.isr.number>:
    25a5:	0f 01 ca             	clac
    25a8:	6a 00                	push   $0x0
    25aa:	6a 3f                	push   $0x3f
    25ac:	e9 0f fc ff ff       	jmp    21c0 <interrupt_common>
    25b1:	cc                   	int3

00000000000025b2 <isr.dispatch.955.is.not.the.isr.number>:
    25b2:	0f 01 ca             	clac
    25b5:	6a 00                	push   $0x0
    25b7:	6a 40                	push   $0x40
    25b9:	e9 02 fc ff ff       	jmp    21c0 <interrupt_common>
    25be:	cc                   	int3

00000000000025bf <isr.dispatch.970.is.not.the.isr.number>:
    25bf:	0f 01 ca             	clac
    25c2:	6a 00                	push   $0x0
    25c4:	6a 41                	push   $0x41
    25c6:	e9 f5 fb ff ff       	jmp    21c0 <interrupt_common>
    25cb:	cc                   	int3

00000000000025cc <isr.dispatch.985.is.not.the.isr.number>:
    25cc:	0f 01 ca             	clac
    25cf:	6a 00                	push   $0x0
    25d1:	6a 42                	push   $0x42
    25d3:	e9 e8 fb ff ff       	jmp    21c0 <interrupt_common>
    25d8:	cc                   	int3

00000000000025d9 <isr.dispatch.1000.is.not.the.isr.number>:
    25d9:	0f 01 ca             	clac
    25dc:	6a 00                	push   $0x0
    25de:	6a 43                	push   $0x43
    25e0:	e9 db fb ff ff       	jmp    21c0 <interrupt_common>
    25e5:	cc                   	int3

00000000000025e6 <isr.dispatch.1015.is.not.the.isr.number>:
    25e6:	0f 01 ca             	clac
    25e9:	6a 00                	push   $0x0
    25eb:	6a 44                	push   $0x44
    25ed:	e9 ce fb ff ff       	jmp    21c0 <interrupt_common>
    25f2:	cc                   	int3

00000000000025f3 <isr.dispatch.1030.is.not.the.isr.number>:
    25f3:	0f 01 ca             	clac
    25f6:	6a 00                	push   $0x0
    25f8:	6a 45                	push   $0x45
    25fa:	e9 c1 fb ff ff       	jmp    21c0 <interrupt_common>
    25ff:	cc                   	int3

0000000000002600 <isr.dispatch.1045.is.not.the.isr.number>:
    2600:	0f 01 ca             	clac
    2603:	6a 00                	push   $0x0
    2605:	6a 46                	push   $0x46
    2607:	e9 b4 fb ff ff       	jmp    21c0 <interrupt_common>
    260c:	cc                   	int3

000000000000260d <isr.dispatch.1060.is.not.the.isr.number>:
    260d:	0f 01 ca             	clac
    2610:	6a 00                	push   $0x0
    2612:	6a 47                	push   $0x47
    2614:	e9 a7 fb ff ff       	jmp    21c0 <interrupt_common>
    2619:	cc                   	int3

000000000000261a <isr.dispatch.1075.is.not.the.isr.number>:
    261a:	0f 01 ca             	clac
    261d:	6a 00                	push   $0x0
    261f:	6a 48                	push   $0x48
    2621:	e9 9a fb ff ff       	jmp    21c0 <interrupt_common>
    2626:	cc                   	int3

0000000000002627 <isr.dispatch.1090.is.not.the.isr.number>:
    2627:	0f 01 ca             	clac
    262a:	6a 00                	push   $0x0
    262c:	6a 49                	push   $0x49
    262e:	e9 8d fb ff ff       	jmp    21c0 <interrupt_common>
    2633:	cc                   	int3

0000000000002634 <isr.dispatch.1105.is.not.the.isr.number>:
    2634:	0f 01 ca             	clac
    2637:	6a 00                	push   $0x0
    2639:	6a 4a                	push   $0x4a
    263b:	e9 80 fb ff ff       	jmp    21c0 <interrupt_common>
    2640:	cc                   	int3

0000000000002641 <isr.dispatch.1120.is.not.the.isr.number>:
    2641:	0f 01 ca             	clac
    2644:	6a 00                	push   $0x0
    2646:	6a 4b                	push   $0x4b
    2648:	e9 73 fb ff ff       	jmp    21c0 <interrupt_common>
    264d:	cc                   	int3

000000000000264e <isr.dispatch.1135.is.not.the.isr.number>:
    264e:	0f 01 ca             	clac
    2651:	6a 00                	push   $0x0
    2653:	6a 4c                	push   $0x4c
    2655:	e9 66 fb ff ff       	jmp    21c0 <interrupt_common>
    265a:	cc                   	int3

000000000000265b <isr.dispatch.1150.is.not.the.isr.number>:
    265b:	0f 01 ca             	clac
    265e:	6a 00                	push   $0x0
    2660:	6a 4d                	push   $0x4d
    2662:	e9 59 fb ff ff       	jmp    21c0 <interrupt_common>
    2667:	cc                   	int3

0000000000002668 <isr.dispatch.1165.is.not.the.isr.number>:
    2668:	0f 01 ca             	clac
    266b:	6a 00                	push   $0x0
    266d:	6a 4e                	push   $0x4e
    266f:	e9 4c fb ff ff       	jmp    21c0 <interrupt_common>
    2674:	cc                   	int3

0000000000002675 <isr.dispatch.1180.is.not.the.isr.number>:
    2675:	0f 01 ca             	clac
    2678:	6a 00                	push   $0x0
    267a:	6a 4f                	push   $0x4f
    267c:	e9 3f fb ff ff       	jmp    21c0 <interrupt_common>
    2681:	cc                   	int3

0000000000002682 <isr.dispatch.1195.is.not.the.isr.number>:
    2682:	0f 01 ca             	clac
    2685:	6a 00                	push   $0x0
    2687:	6a 50                	push   $0x50
    2689:	e9 32 fb ff ff       	jmp    21c0 <interrupt_common>
    268e:	cc                   	int3

000000000000268f <isr.dispatch.1210.is.not.the.isr.number>:
    268f:	0f 01 ca             	clac
    2692:	6a 00                	push   $0x0
    2694:	6a 51                	push   $0x51
    2696:	e9 25 fb ff ff       	jmp    21c0 <interrupt_common>
    269b:	cc                   	int3

000000000000269c <isr.dispatch.1225.is.not.the.isr.number>:
    269c:	0f 01 ca             	clac
    269f:	6a 00                	push   $0x0
    26a1:	6a 52                	push   $0x52
    26a3:	e9 18 fb ff ff       	jmp    21c0 <interrupt_common>
    26a8:	cc                   	int3

00000000000026a9 <isr.dispatch.1240.is.not.the.isr.number>:
    26a9:	0f 01 ca             	clac
    26ac:	6a 00                	push   $0x0
    26ae:	6a 53                	push   $0x53
    26b0:	e9 0b fb ff ff       	jmp    21c0 <interrupt_common>
    26b5:	cc                   	int3

00000000000026b6 <isr.dispatch.1255.is.not.the.isr.number>:
    26b6:	0f 01 ca             	clac
    26b9:	6a 00                	push   $0x0
    26bb:	6a 54                	push   $0x54
    26bd:	e9 fe fa ff ff       	jmp    21c0 <interrupt_common>
    26c2:	cc                   	int3

00000000000026c3 <isr.dispatch.1270.is.not.the.isr.number>:
    26c3:	0f 01 ca             	clac
    26c6:	6a 00                	push   $0x0
    26c8:	6a 55                	push   $0x55
    26ca:	e9 f1 fa ff ff       	jmp    21c0 <interrupt_common>
    26cf:	cc                   	int3

00000000000026d0 <isr.dispatch.1285.is.not.the.isr.number>:
    26d0:	0f 01 ca             	clac
    26d3:	6a 00                	push   $0x0
    26d5:	6a 56                	push   $0x56
    26d7:	e9 e4 fa ff ff       	jmp    21c0 <interrupt_common>
    26dc:	cc                   	int3

00000000000026dd <isr.dispatch.1300.is.not.the.isr.number>:
    26dd:	0f 01 ca             	clac
    26e0:	6a 00                	push   $0x0
    26e2:	6a 57                	push   $0x57
    26e4:	e9 d7 fa ff ff       	jmp    21c0 <interrupt_common>
    26e9:	cc                   	int3

00000000000026ea <isr.dispatch.1315.is.not.the.isr.number>:
    26ea:	0f 01 ca             	clac
    26ed:	6a 00                	push   $0x0
    26ef:	6a 58                	push   $0x58
    26f1:	e9 ca fa ff ff       	jmp    21c0 <interrupt_common>
    26f6:	cc                   	int3

00000000000026f7 <isr.dispatch.1330.is.not.the.isr.number>:
    26f7:	0f 01 ca             	clac
    26fa:	6a 00                	push   $0x0
    26fc:	6a 59                	push   $0x59
    26fe:	e9 bd fa ff ff       	jmp    21c0 <interrupt_common>
    2703:	cc                   	int3

0000000000002704 <isr.dispatch.1345.is.not.the.isr.number>:
    2704:	0f 01 ca             	clac
    2707:	6a 00                	push   $0x0
    2709:	6a 5a                	push   $0x5a
    270b:	e9 b0 fa ff ff       	jmp    21c0 <interrupt_common>
    2710:	cc                   	int3

0000000000002711 <isr.dispatch.1360.is.not.the.isr.number>:
    2711:	0f 01 ca             	clac
    2714:	6a 00                	push   $0x0
    2716:	6a 5b                	push   $0x5b
    2718:	e9 a3 fa ff ff       	jmp    21c0 <interrupt_common>
    271d:	cc                   	int3

000000000000271e <isr.dispatch.1375.is.not.the.isr.number>:
    271e:	0f 01 ca             	clac
    2721:	6a 00                	push   $0x0
    2723:	6a 5c                	push   $0x5c
    2725:	e9 96 fa ff ff       	jmp    21c0 <interrupt_common>
    272a:	cc                   	int3

000000000000272b <isr.dispatch.1390.is.not.the.isr.number>:
    272b:	0f 01 ca             	clac
    272e:	6a 00                	push   $0x0
    2730:	6a 5d                	push   $0x5d
    2732:	e9 89 fa ff ff       	jmp    21c0 <interrupt_common>
    2737:	cc                   	int3

0000000000002738 <isr.dispatch.1405.is.not.the.isr.number>:
    2738:	0f 01 ca             	clac
    273b:	6a 00                	push   $0x0
    273d:	6a 5e                	push   $0x5e
    273f:	e9 7c fa ff ff       	jmp    21c0 <interrupt_common>
    2744:	cc                   	int3

0000000000002745 <isr.dispatch.1420.is.not.the.isr.number>:
    2745:	0f 01 ca             	clac
    2748:	6a 00                	push   $0x0
    274a:	6a 5f                	push   $0x5f
    274c:	e9 6f fa ff ff       	jmp    21c0 <interrupt_common>
    2751:	cc                   	int3

0000000000002752 <isr.dispatch.1435.is.not.the.isr.number>:
    2752:	0f 01 ca             	clac
    2755:	6a 00                	push   $0x0
    2757:	6a 60                	push   $0x60
    2759:	e9 62 fa ff ff       	jmp    21c0 <interrupt_common>
    275e:	cc                   	int3

000000000000275f <isr.dispatch.1450.is.not.the.isr.number>:
    275f:	0f 01 ca             	clac
    2762:	6a 00                	push   $0x0
    2764:	6a 61                	push   $0x61
    2766:	e9 55 fa ff ff       	jmp    21c0 <interrupt_common>
    276b:	cc                   	int3

000000000000276c <isr.dispatch.1465.is.not.the.isr.number>:
    276c:	0f 01 ca             	clac
    276f:	6a 00                	push   $0x0
    2771:	6a 62                	push   $0x62
    2773:	e9 48 fa ff ff       	jmp    21c0 <interrupt_common>
    2778:	cc                   	int3

0000000000002779 <isr.dispatch.1480.is.not.the.isr.number>:
    2779:	0f 01 ca             	clac
    277c:	6a 00                	push   $0x0
    277e:	6a 63                	push   $0x63
    2780:	e9 3b fa ff ff       	jmp    21c0 <interrupt_common>
    2785:	cc                   	int3

0000000000002786 <isr.dispatch.1495.is.not.the.isr.number>:
    2786:	0f 01 ca             	clac
    2789:	6a 00                	push   $0x0
    278b:	6a 64                	push   $0x64
    278d:	e9 2e fa ff ff       	jmp    21c0 <interrupt_common>
    2792:	cc                   	int3

0000000000002793 <isr.dispatch.1510.is.not.the.isr.number>:
    2793:	0f 01 ca             	clac
    2796:	6a 00                	push   $0x0
    2798:	6a 65                	push   $0x65
    279a:	e9 21 fa ff ff       	jmp    21c0 <interrupt_common>
    279f:	cc                   	int3

00000000000027a0 <isr.dispatch.1525.is.not.the.isr.number>:
    27a0:	0f 01 ca             	clac
    27a3:	6a 00                	push   $0x0
    27a5:	6a 66                	push   $0x66
    27a7:	e9 14 fa ff ff       	jmp    21c0 <interrupt_common>
    27ac:	cc                   	int3

00000000000027ad <isr.dispatch.1540.is.not.the.isr.number>:
    27ad:	0f 01 ca             	clac
    27b0:	6a 00                	push   $0x0
    27b2:	6a 67                	push   $0x67
    27b4:	e9 07 fa ff ff       	jmp    21c0 <interrupt_common>
    27b9:	cc                   	int3

00000000000027ba <isr.dispatch.1555.is.not.the.isr.number>:
    27ba:	0f 01 ca             	clac
    27bd:	6a 00                	push   $0x0
    27bf:	6a 68                	push   $0x68
    27c1:	e9 fa f9 ff ff       	jmp    21c0 <interrupt_common>
    27c6:	cc                   	int3

00000000000027c7 <isr.dispatch.1570.is.not.the.isr.number>:
    27c7:	0f 01 ca             	clac
    27ca:	6a 00                	push   $0x0
    27cc:	6a 69                	push   $0x69
    27ce:	e9 ed f9 ff ff       	jmp    21c0 <interrupt_common>
    27d3:	cc                   	int3

00000000000027d4 <isr.dispatch.1585.is.not.the.isr.number>:
    27d4:	0f 01 ca             	clac
    27d7:	6a 00                	push   $0x0
    27d9:	6a 6a                	push   $0x6a
    27db:	e9 e0 f9 ff ff       	jmp    21c0 <interrupt_common>
    27e0:	cc                   	int3

00000000000027e1 <isr.dispatch.1600.is.not.the.isr.number>:
    27e1:	0f 01 ca             	clac
    27e4:	6a 00                	push   $0x0
    27e6:	6a 6b                	push   $0x6b
    27e8:	e9 d3 f9 ff ff       	jmp    21c0 <interrupt_common>
    27ed:	cc                   	int3

00000000000027ee <isr.dispatch.1615.is.not.the.isr.number>:
    27ee:	0f 01 ca             	clac
    27f1:	6a 00                	push   $0x0
    27f3:	6a 6c                	push   $0x6c
    27f5:	e9 c6 f9 ff ff       	jmp    21c0 <interrupt_common>
    27fa:	cc                   	int3

00000000000027fb <isr.dispatch.1630.is.not.the.isr.number>:
    27fb:	0f 01 ca             	clac
    27fe:	6a 00                	push   $0x0
    2800:	6a 6d                	push   $0x6d
    2802:	e9 b9 f9 ff ff       	jmp    21c0 <interrupt_common>
    2807:	cc                   	int3

0000000000002808 <isr.dispatch.1645.is.not.the.isr.number>:
    2808:	0f 01 ca             	clac
    280b:	6a 00                	push   $0x0
    280d:	6a 6e                	push   $0x6e
    280f:	e9 ac f9 ff ff       	jmp    21c0 <interrupt_common>
    2814:	cc                   	int3

0000000000002815 <isr.dispatch.1660.is.not.the.isr.number>:
    2815:	0f 01 ca             	clac
    2818:	6a 00                	push   $0x0
    281a:	6a 6f                	push   $0x6f
    281c:	e9 9f f9 ff ff       	jmp    21c0 <interrupt_common>
    2821:	cc                   	int3

0000000000002822 <isr.dispatch.1675.is.not.the.isr.number>:
    2822:	0f 01 ca             	clac
    2825:	6a 00                	push   $0x0
    2827:	6a 70                	push   $0x70
    2829:	e9 92 f9 ff ff       	jmp    21c0 <interrupt_common>
    282e:	cc                   	int3

000000000000282f <isr.dispatch.1690.is.not.the.isr.number>:
    282f:	0f 01 ca             	clac
    2832:	6a 00                	push   $0x0
    2834:	6a 71                	push   $0x71
    2836:	e9 85 f9 ff ff       	jmp    21c0 <interrupt_common>
    283b:	cc                   	int3

000000000000283c <isr.dispatch.1705.is.not.the.isr.number>:
    283c:	0f 01 ca             	clac
    283f:	6a 00                	push   $0x0
    2841:	6a 72                	push   $0x72
    2843:	e9 78 f9 ff ff       	jmp    21c0 <interrupt_common>
    2848:	cc                   	int3

0000000000002849 <isr.dispatch.1720.is.not.the.isr.number>:
    2849:	0f 01 ca             	clac
    284c:	6a 00                	push   $0x0
    284e:	6a 73                	push   $0x73
    2850:	e9 6b f9 ff ff       	jmp    21c0 <interrupt_common>
    2855:	cc                   	int3

0000000000002856 <isr.dispatch.1735.is.not.the.isr.number>:
    2856:	0f 01 ca             	clac
    2859:	6a 00                	push   $0x0
    285b:	6a 74                	push   $0x74
    285d:	e9 5e f9 ff ff       	jmp    21c0 <interrupt_common>
    2862:	cc                   	int3

0000000000002863 <isr.dispatch.1750.is.not.the.isr.number>:
    2863:	0f 01 ca             	clac
    2866:	6a 00                	push   $0x0
    2868:	6a 75                	push   $0x75
    286a:	e9 51 f9 ff ff       	jmp    21c0 <interrupt_common>
    286f:	cc                   	int3

0000000000002870 <isr.dispatch.1765.is.not.the.isr.number>:
    2870:	0f 01 ca             	clac
    2873:	6a 00                	push   $0x0
    2875:	6a 76                	push   $0x76
    2877:	e9 44 f9 ff ff       	jmp    21c0 <interrupt_common>
    287c:	cc                   	int3

000000000000287d <isr.dispatch.1780.is.not.the.isr.number>:
    287d:	0f 01 ca             	clac
    2880:	6a 00                	push   $0x0
    2882:	6a 77                	push   $0x77
    2884:	e9 37 f9 ff ff       	jmp    21c0 <interrupt_common>
    2889:	cc                   	int3

000000000000288a <isr.dispatch.1795.is.not.the.isr.number>:
    288a:	0f 01 ca             	clac
    288d:	6a 00                	push   $0x0
    288f:	6a 78                	push   $0x78
    2891:	e9 2a f9 ff ff       	jmp    21c0 <interrupt_common>
    2896:	cc                   	int3

0000000000002897 <isr.dispatch.1810.is.not.the.isr.number>:
    2897:	0f 01 ca             	clac
    289a:	6a 00                	push   $0x0
    289c:	6a 79                	push   $0x79
    289e:	e9 1d f9 ff ff       	jmp    21c0 <interrupt_common>
    28a3:	cc                   	int3

00000000000028a4 <isr.dispatch.1825.is.not.the.isr.number>:
    28a4:	0f 01 ca             	clac
    28a7:	6a 00                	push   $0x0
    28a9:	6a 7a                	push   $0x7a
    28ab:	e9 10 f9 ff ff       	jmp    21c0 <interrupt_common>
    28b0:	cc                   	int3

00000000000028b1 <isr.dispatch.1840.is.not.the.isr.number>:
    28b1:	0f 01 ca             	clac
    28b4:	6a 00                	push   $0x0
    28b6:	6a 7b                	push   $0x7b
    28b8:	e9 03 f9 ff ff       	jmp    21c0 <interrupt_common>
    28bd:	cc                   	int3

00000000000028be <isr.dispatch.1855.is.not.the.isr.number>:
    28be:	0f 01 ca             	clac
    28c1:	6a 00                	push   $0x0
    28c3:	6a 7c                	push   $0x7c
    28c5:	e9 f6 f8 ff ff       	jmp    21c0 <interrupt_common>
    28ca:	cc                   	int3

00000000000028cb <isr.dispatch.1870.is.not.the.isr.number>:
    28cb:	0f 01 ca             	clac
    28ce:	6a 00                	push   $0x0
    28d0:	6a 7d                	push   $0x7d
    28d2:	e9 e9 f8 ff ff       	jmp    21c0 <interrupt_common>
    28d7:	cc                   	int3

00000000000028d8 <isr.dispatch.1885.is.not.the.isr.number>:
    28d8:	0f 01 ca             	clac
    28db:	6a 00                	push   $0x0
    28dd:	6a 7e                	push   $0x7e
    28df:	e9 dc f8 ff ff       	jmp    21c0 <interrupt_common>
    28e4:	cc                   	int3

00000000000028e5 <isr.dispatch.1900.is.not.the.isr.number>:
    28e5:	0f 01 ca             	clac
    28e8:	6a 00                	push   $0x0
    28ea:	6a 7f                	push   $0x7f
    28ec:	e9 cf f8 ff ff       	jmp    21c0 <interrupt_common>
    28f1:	cc                   	int3

00000000000028f2 <isr.dispatch.1915.is.not.the.isr.number>:
    28f2:	0f 01 ca             	clac
    28f5:	6a 00                	push   $0x0
    28f7:	68 80 00 00 00       	push   $0x80
    28fc:	e9 bf f8 ff ff       	jmp    21c0 <interrupt_common>
    2901:	cc                   	int3

0000000000002902 <isr.dispatch.1930.is.not.the.isr.number>:
    2902:	0f 01 ca             	clac
    2905:	6a 00                	push   $0x0
    2907:	68 81 00 00 00       	push   $0x81
    290c:	e9 af f8 ff ff       	jmp    21c0 <interrupt_common>
    2911:	cc                   	int3

0000000000002912 <isr.dispatch.1945.is.not.the.isr.number>:
    2912:	0f 01 ca             	clac
    2915:	6a 00                	push   $0x0
    2917:	68 82 00 00 00       	push   $0x82
    291c:	e9 9f f8 ff ff       	jmp    21c0 <interrupt_common>
    2921:	cc                   	int3

0000000000002922 <isr.dispatch.1960.is.not.the.isr.number>:
    2922:	0f 01 ca             	clac
    2925:	6a 00                	push   $0x0
    2927:	68 83 00 00 00       	push   $0x83
    292c:	e9 8f f8 ff ff       	jmp    21c0 <interrupt_common>
    2931:	cc                   	int3

0000000000002932 <isr.dispatch.1975.is.not.the.isr.number>:
    2932:	0f 01 ca             	clac
    2935:	6a 00                	push   $0x0
    2937:	68 84 00 00 00       	push   $0x84
    293c:	e9 7f f8 ff ff       	jmp    21c0 <interrupt_common>
    2941:	cc                   	int3

0000000000002942 <isr.dispatch.1990.is.not.the.isr.number>:
    2942:	0f 01 ca             	clac
    2945:	6a 00                	push   $0x0
    2947:	68 85 00 00 00       	push   $0x85
    294c:	e9 6f f8 ff ff       	jmp    21c0 <interrupt_common>
    2951:	cc                   	int3

0000000000002952 <isr.dispatch.2005.is.not.the.isr.number>:
    2952:	0f 01 ca             	clac
    2955:	6a 00                	push   $0x0
    2957:	68 86 00 00 00       	push   $0x86
    295c:	e9 5f f8 ff ff       	jmp    21c0 <interrupt_common>
    2961:	cc                   	int3

0000000000002962 <isr.dispatch.2020.is.not.the.isr.number>:
    2962:	0f 01 ca             	clac
    2965:	6a 00                	push   $0x0
    2967:	68 87 00 00 00       	push   $0x87
    296c:	e9 4f f8 ff ff       	jmp    21c0 <interrupt_common>
    2971:	cc                   	int3

0000000000002972 <isr.dispatch.2035.is.not.the.isr.number>:
    2972:	0f 01 ca             	clac
    2975:	6a 00                	push   $0x0
    2977:	68 88 00 00 00       	push   $0x88
    297c:	e9 3f f8 ff ff       	jmp    21c0 <interrupt_common>
    2981:	cc                   	int3

0000000000002982 <isr.dispatch.2050.is.not.the.isr.number>:
    2982:	0f 01 ca             	clac
    2985:	6a 00                	push   $0x0
    2987:	68 89 00 00 00       	push   $0x89
    298c:	e9 2f f8 ff ff       	jmp    21c0 <interrupt_common>
    2991:	cc                   	int3

0000000000002992 <isr.dispatch.2065.is.not.the.isr.number>:
    2992:	0f 01 ca             	clac
    2995:	6a 00                	push   $0x0
    2997:	68 8a 00 00 00       	push   $0x8a
    299c:	e9 1f f8 ff ff       	jmp    21c0 <interrupt_common>
    29a1:	cc                   	int3

00000000000029a2 <isr.dispatch.2080.is.not.the.isr.number>:
    29a2:	0f 01 ca             	clac
    29a5:	6a 00                	push   $0x0
    29a7:	68 8b 00 00 00       	push   $0x8b
    29ac:	e9 0f f8 ff ff       	jmp    21c0 <interrupt_common>
    29b1:	cc                   	int3

00000000000029b2 <isr.dispatch.2095.is.not.the.isr.number>:
    29b2:	0f 01 ca             	clac
    29b5:	6a 00                	push   $0x0
    29b7:	68 8c 00 00 00       	push   $0x8c
    29bc:	e9 ff f7 ff ff       	jmp    21c0 <interrupt_common>
    29c1:	cc                   	int3

00000000000029c2 <isr.dispatch.2110.is.not.the.isr.number>:
    29c2:	0f 01 ca             	clac
    29c5:	6a 00                	push   $0x0
    29c7:	68 8d 00 00 00       	push   $0x8d
    29cc:	e9 ef f7 ff ff       	jmp    21c0 <interrupt_common>
    29d1:	cc                   	int3

00000000000029d2 <isr.dispatch.2125.is.not.the.isr.number>:
    29d2:	0f 01 ca             	clac
    29d5:	6a 00                	push   $0x0
    29d7:	68 8e 00 00 00       	push   $0x8e
    29dc:	e9 df f7 ff ff       	jmp    21c0 <interrupt_common>
    29e1:	cc                   	int3

00000000000029e2 <isr.dispatch.2140.is.not.the.isr.number>:
    29e2:	0f 01 ca             	clac
    29e5:	6a 00                	push   $0x0
    29e7:	68 8f 00 00 00       	push   $0x8f
    29ec:	e9 cf f7 ff ff       	jmp    21c0 <interrupt_common>
    29f1:	cc                   	int3

00000000000029f2 <isr.dispatch.2155.is.not.the.isr.number>:
    29f2:	0f 01 ca             	clac
    29f5:	6a 00                	push   $0x0
    29f7:	68 90 00 00 00       	push   $0x90
    29fc:	e9 bf f7 ff ff       	jmp    21c0 <interrupt_common>
    2a01:	cc                   	int3

0000000000002a02 <isr.dispatch.2170.is.not.the.isr.number>:
    2a02:	0f 01 ca             	clac
    2a05:	6a 00                	push   $0x0
    2a07:	68 91 00 00 00       	push   $0x91
    2a0c:	e9 af f7 ff ff       	jmp    21c0 <interrupt_common>
    2a11:	cc                   	int3

0000000000002a12 <isr.dispatch.2185.is.not.the.isr.number>:
    2a12:	0f 01 ca             	clac
    2a15:	6a 00                	push   $0x0
    2a17:	68 92 00 00 00       	push   $0x92
    2a1c:	e9 9f f7 ff ff       	jmp    21c0 <interrupt_common>
    2a21:	cc                   	int3

0000000000002a22 <isr.dispatch.2200.is.not.the.isr.number>:
    2a22:	0f 01 ca             	clac
    2a25:	6a 00                	push   $0x0
    2a27:	68 93 00 00 00       	push   $0x93
    2a2c:	e9 8f f7 ff ff       	jmp    21c0 <interrupt_common>
    2a31:	cc                   	int3

0000000000002a32 <isr.dispatch.2215.is.not.the.isr.number>:
    2a32:	0f 01 ca             	clac
    2a35:	6a 00                	push   $0x0
    2a37:	68 94 00 00 00       	push   $0x94
    2a3c:	e9 7f f7 ff ff       	jmp    21c0 <interrupt_common>
    2a41:	cc                   	int3

0000000000002a42 <isr.dispatch.2230.is.not.the.isr.number>:
    2a42:	0f 01 ca             	clac
    2a45:	6a 00                	push   $0x0
    2a47:	68 95 00 00 00       	push   $0x95
    2a4c:	e9 6f f7 ff ff       	jmp    21c0 <interrupt_common>
    2a51:	cc                   	int3

0000000000002a52 <isr.dispatch.2245.is.not.the.isr.number>:
    2a52:	0f 01 ca             	clac
    2a55:	6a 00                	push   $0x0
    2a57:	68 96 00 00 00       	push   $0x96
    2a5c:	e9 5f f7 ff ff       	jmp    21c0 <interrupt_common>
    2a61:	cc                   	int3

0000000000002a62 <isr.dispatch.2260.is.not.the.isr.number>:
    2a62:	0f 01 ca             	clac
    2a65:	6a 00                	push   $0x0
    2a67:	68 97 00 00 00       	push   $0x97
    2a6c:	e9 4f f7 ff ff       	jmp    21c0 <interrupt_common>
    2a71:	cc                   	int3

0000000000002a72 <isr.dispatch.2275.is.not.the.isr.number>:
    2a72:	0f 01 ca             	clac
    2a75:	6a 00                	push   $0x0
    2a77:	68 98 00 00 00       	push   $0x98
    2a7c:	e9 3f f7 ff ff       	jmp    21c0 <interrupt_common>
    2a81:	cc                   	int3

0000000000002a82 <isr.dispatch.2290.is.not.the.isr.number>:
    2a82:	0f 01 ca             	clac
    2a85:	6a 00                	push   $0x0
    2a87:	68 99 00 00 00       	push   $0x99
    2a8c:	e9 2f f7 ff ff       	jmp    21c0 <interrupt_common>
    2a91:	cc                   	int3

0000000000002a92 <isr.dispatch.2305.is.not.the.isr.number>:
    2a92:	0f 01 ca             	clac
    2a95:	6a 00                	push   $0x0
    2a97:	68 9a 00 00 00       	push   $0x9a
    2a9c:	e9 1f f7 ff ff       	jmp    21c0 <interrupt_common>
    2aa1:	cc                   	int3

0000000000002aa2 <isr.dispatch.2320.is.not.the.isr.number>:
    2aa2:	0f 01 ca             	clac
    2aa5:	6a 00                	push   $0x0
    2aa7:	68 9b 00 00 00       	push   $0x9b
    2aac:	e9 0f f7 ff ff       	jmp    21c0 <interrupt_common>
    2ab1:	cc                   	int3

0000000000002ab2 <isr.dispatch.2335.is.not.the.isr.number>:
    2ab2:	0f 01 ca             	clac
    2ab5:	6a 00                	push   $0x0
    2ab7:	68 9c 00 00 00       	push   $0x9c
    2abc:	e9 ff f6 ff ff       	jmp    21c0 <interrupt_common>
    2ac1:	cc                   	int3

0000000000002ac2 <isr.dispatch.2350.is.not.the.isr.number>:
    2ac2:	0f 01 ca             	clac
    2ac5:	6a 00                	push   $0x0
    2ac7:	68 9d 00 00 00       	push   $0x9d
    2acc:	e9 ef f6 ff ff       	jmp    21c0 <interrupt_common>
    2ad1:	cc                   	int3

0000000000002ad2 <isr.dispatch.2365.is.not.the.isr.number>:
    2ad2:	0f 01 ca             	clac
    2ad5:	6a 00                	push   $0x0
    2ad7:	68 9e 00 00 00       	push   $0x9e
    2adc:	e9 df f6 ff ff       	jmp    21c0 <interrupt_common>
    2ae1:	cc                   	int3

0000000000002ae2 <isr.dispatch.2380.is.not.the.isr.number>:
    2ae2:	0f 01 ca             	clac
    2ae5:	6a 00                	push   $0x0
    2ae7:	68 9f 00 00 00       	push   $0x9f
    2aec:	e9 cf f6 ff ff       	jmp    21c0 <interrupt_common>
    2af1:	cc                   	int3

0000000000002af2 <isr.dispatch.2395.is.not.the.isr.number>:
    2af2:	0f 01 ca             	clac
    2af5:	6a 00                	push   $0x0
    2af7:	68 a0 00 00 00       	push   $0xa0
    2afc:	e9 bf f6 ff ff       	jmp    21c0 <interrupt_common>
    2b01:	cc                   	int3

0000000000002b02 <isr.dispatch.2410.is.not.the.isr.number>:
    2b02:	0f 01 ca             	clac
    2b05:	6a 00                	push   $0x0
    2b07:	68 a1 00 00 00       	push   $0xa1
    2b0c:	e9 af f6 ff ff       	jmp    21c0 <interrupt_common>
    2b11:	cc                   	int3

0000000000002b12 <isr.dispatch.2425.is.not.the.isr.number>:
    2b12:	0f 01 ca             	clac
    2b15:	6a 00                	push   $0x0
    2b17:	68 a2 00 00 00       	push   $0xa2
    2b1c:	e9 9f f6 ff ff       	jmp    21c0 <interrupt_common>
    2b21:	cc                   	int3

0000000000002b22 <isr.dispatch.2440.is.not.the.isr.number>:
    2b22:	0f 01 ca             	clac
    2b25:	6a 00                	push   $0x0
    2b27:	68 a3 00 00 00       	push   $0xa3
    2b2c:	e9 8f f6 ff ff       	jmp    21c0 <interrupt_common>
    2b31:	cc                   	int3

0000000000002b32 <isr.dispatch.2455.is.not.the.isr.number>:
    2b32:	0f 01 ca             	clac
    2b35:	6a 00                	push   $0x0
    2b37:	68 a4 00 00 00       	push   $0xa4
    2b3c:	e9 7f f6 ff ff       	jmp    21c0 <interrupt_common>
    2b41:	cc                   	int3

0000000000002b42 <isr.dispatch.2470.is.not.the.isr.number>:
    2b42:	0f 01 ca             	clac
    2b45:	6a 00                	push   $0x0
    2b47:	68 a5 00 00 00       	push   $0xa5
    2b4c:	e9 6f f6 ff ff       	jmp    21c0 <interrupt_common>
    2b51:	cc                   	int3

0000000000002b52 <isr.dispatch.2485.is.not.the.isr.number>:
    2b52:	0f 01 ca             	clac
    2b55:	6a 00                	push   $0x0
    2b57:	68 a6 00 00 00       	push   $0xa6
    2b5c:	e9 5f f6 ff ff       	jmp    21c0 <interrupt_common>
    2b61:	cc                   	int3

0000000000002b62 <isr.dispatch.2500.is.not.the.isr.number>:
    2b62:	0f 01 ca             	clac
    2b65:	6a 00                	push   $0x0
    2b67:	68 a7 00 00 00       	push   $0xa7
    2b6c:	e9 4f f6 ff ff       	jmp    21c0 <interrupt_common>
    2b71:	cc                   	int3

0000000000002b72 <isr.dispatch.2515.is.not.the.isr.number>:
    2b72:	0f 01 ca             	clac
    2b75:	6a 00                	push   $0x0
    2b77:	68 a8 00 00 00       	push   $0xa8
    2b7c:	e9 3f f6 ff ff       	jmp    21c0 <interrupt_common>
    2b81:	cc                   	int3

0000000000002b82 <isr.dispatch.2530.is.not.the.isr.number>:
    2b82:	0f 01 ca             	clac
    2b85:	6a 00                	push   $0x0
    2b87:	68 a9 00 00 00       	push   $0xa9
    2b8c:	e9 2f f6 ff ff       	jmp    21c0 <interrupt_common>
    2b91:	cc                   	int3

0000000000002b92 <isr.dispatch.2545.is.not.the.isr.number>:
    2b92:	0f 01 ca             	clac
    2b95:	6a 00                	push   $0x0
    2b97:	68 aa 00 00 00       	push   $0xaa
    2b9c:	e9 1f f6 ff ff       	jmp    21c0 <interrupt_common>
    2ba1:	cc                   	int3

0000000000002ba2 <isr.dispatch.2560.is.not.the.isr.number>:
    2ba2:	0f 01 ca             	clac
    2ba5:	6a 00                	push   $0x0
    2ba7:	68 ab 00 00 00       	push   $0xab
    2bac:	e9 0f f6 ff ff       	jmp    21c0 <interrupt_common>
    2bb1:	cc                   	int3

0000000000002bb2 <isr.dispatch.2575.is.not.the.isr.number>:
    2bb2:	0f 01 ca             	clac
    2bb5:	6a 00                	push   $0x0
    2bb7:	68 ac 00 00 00       	push   $0xac
    2bbc:	e9 ff f5 ff ff       	jmp    21c0 <interrupt_common>
    2bc1:	cc                   	int3

0000000000002bc2 <isr.dispatch.2590.is.not.the.isr.number>:
    2bc2:	0f 01 ca             	clac
    2bc5:	6a 00                	push   $0x0
    2bc7:	68 ad 00 00 00       	push   $0xad
    2bcc:	e9 ef f5 ff ff       	jmp    21c0 <interrupt_common>
    2bd1:	cc                   	int3

0000000000002bd2 <isr.dispatch.2605.is.not.the.isr.number>:
    2bd2:	0f 01 ca             	clac
    2bd5:	6a 00                	push   $0x0
    2bd7:	68 ae 00 00 00       	push   $0xae
    2bdc:	e9 df f5 ff ff       	jmp    21c0 <interrupt_common>
    2be1:	cc                   	int3

0000000000002be2 <isr.dispatch.2620.is.not.the.isr.number>:
    2be2:	0f 01 ca             	clac
    2be5:	6a 00                	push   $0x0
    2be7:	68 af 00 00 00       	push   $0xaf
    2bec:	e9 cf f5 ff ff       	jmp    21c0 <interrupt_common>
    2bf1:	cc                   	int3

0000000000002bf2 <isr.dispatch.2635.is.not.the.isr.number>:
    2bf2:	0f 01 ca             	clac
    2bf5:	6a 00                	push   $0x0
    2bf7:	68 b0 00 00 00       	push   $0xb0
    2bfc:	e9 bf f5 ff ff       	jmp    21c0 <interrupt_common>
    2c01:	cc                   	int3

0000000000002c02 <isr.dispatch.2650.is.not.the.isr.number>:
    2c02:	0f 01 ca             	clac
    2c05:	6a 00                	push   $0x0
    2c07:	68 b1 00 00 00       	push   $0xb1
    2c0c:	e9 af f5 ff ff       	jmp    21c0 <interrupt_common>
    2c11:	cc                   	int3

0000000000002c12 <isr.dispatch.2665.is.not.the.isr.number>:
    2c12:	0f 01 ca             	clac
    2c15:	6a 00                	push   $0x0
    2c17:	68 b2 00 00 00       	push   $0xb2
    2c1c:	e9 9f f5 ff ff       	jmp    21c0 <interrupt_common>
    2c21:	cc                   	int3

0000000000002c22 <isr.dispatch.2680.is.not.the.isr.number>:
    2c22:	0f 01 ca             	clac
    2c25:	6a 00                	push   $0x0
    2c27:	68 b3 00 00 00       	push   $0xb3
    2c2c:	e9 8f f5 ff ff       	jmp    21c0 <interrupt_common>
    2c31:	cc                   	int3

0000000000002c32 <isr.dispatch.2695.is.not.the.isr.number>:
    2c32:	0f 01 ca             	clac
    2c35:	6a 00                	push   $0x0
    2c37:	68 b4 00 00 00       	push   $0xb4
    2c3c:	e9 7f f5 ff ff       	jmp    21c0 <interrupt_common>
    2c41:	cc                   	int3

0000000000002c42 <isr.dispatch.2710.is.not.the.isr.number>:
    2c42:	0f 01 ca             	clac
    2c45:	6a 00                	push   $0x0
    2c47:	68 b5 00 00 00       	push   $0xb5
    2c4c:	e9 6f f5 ff ff       	jmp    21c0 <interrupt_common>
    2c51:	cc                   	int3

0000000000002c52 <isr.dispatch.2725.is.not.the.isr.number>:
    2c52:	0f 01 ca             	clac
    2c55:	6a 00                	push   $0x0
    2c57:	68 b6 00 00 00       	push   $0xb6
    2c5c:	e9 5f f5 ff ff       	jmp    21c0 <interrupt_common>
    2c61:	cc                   	int3

0000000000002c62 <isr.dispatch.2740.is.not.the.isr.number>:
    2c62:	0f 01 ca             	clac
    2c65:	6a 00                	push   $0x0
    2c67:	68 b7 00 00 00       	push   $0xb7
    2c6c:	e9 4f f5 ff ff       	jmp    21c0 <interrupt_common>
    2c71:	cc                   	int3

0000000000002c72 <isr.dispatch.2755.is.not.the.isr.number>:
    2c72:	0f 01 ca             	clac
    2c75:	6a 00                	push   $0x0
    2c77:	68 b8 00 00 00       	push   $0xb8
    2c7c:	e9 3f f5 ff ff       	jmp    21c0 <interrupt_common>
    2c81:	cc                   	int3

0000000000002c82 <isr.dispatch.2770.is.not.the.isr.number>:
    2c82:	0f 01 ca             	clac
    2c85:	6a 00                	push   $0x0
    2c87:	68 b9 00 00 00       	push   $0xb9
    2c8c:	e9 2f f5 ff ff       	jmp    21c0 <interrupt_common>
    2c91:	cc                   	int3

0000000000002c92 <isr.dispatch.2785.is.not.the.isr.number>:
    2c92:	0f 01 ca             	clac
    2c95:	6a 00                	push   $0x0
    2c97:	68 ba 00 00 00       	push   $0xba
    2c9c:	e9 1f f5 ff ff       	jmp    21c0 <interrupt_common>
    2ca1:	cc                   	int3

0000000000002ca2 <isr.dispatch.2800.is.not.the.isr.number>:
    2ca2:	0f 01 ca             	clac
    2ca5:	6a 00                	push   $0x0
    2ca7:	68 bb 00 00 00       	push   $0xbb
    2cac:	e9 0f f5 ff ff       	jmp    21c0 <interrupt_common>
    2cb1:	cc                   	int3

0000000000002cb2 <isr.dispatch.2815.is.not.the.isr.number>:
    2cb2:	0f 01 ca             	clac
    2cb5:	6a 00                	push   $0x0
    2cb7:	68 bc 00 00 00       	push   $0xbc
    2cbc:	e9 ff f4 ff ff       	jmp    21c0 <interrupt_common>
    2cc1:	cc                   	int3

0000000000002cc2 <isr.dispatch.2830.is.not.the.isr.number>:
    2cc2:	0f 01 ca             	clac
    2cc5:	6a 00                	push   $0x0
    2cc7:	68 bd 00 00 00       	push   $0xbd
    2ccc:	e9 ef f4 ff ff       	jmp    21c0 <interrupt_common>
    2cd1:	cc                   	int3

0000000000002cd2 <isr.dispatch.2845.is.not.the.isr.number>:
    2cd2:	0f 01 ca             	clac
    2cd5:	6a 00                	push   $0x0
    2cd7:	68 be 00 00 00       	push   $0xbe
    2cdc:	e9 df f4 ff ff       	jmp    21c0 <interrupt_common>
    2ce1:	cc                   	int3

0000000000002ce2 <isr.dispatch.2860.is.not.the.isr.number>:
    2ce2:	0f 01 ca             	clac
    2ce5:	6a 00                	push   $0x0
    2ce7:	68 bf 00 00 00       	push   $0xbf
    2cec:	e9 cf f4 ff ff       	jmp    21c0 <interrupt_common>
    2cf1:	cc                   	int3

0000000000002cf2 <isr.dispatch.2875.is.not.the.isr.number>:
    2cf2:	0f 01 ca             	clac
    2cf5:	6a 00                	push   $0x0
    2cf7:	68 c0 00 00 00       	push   $0xc0
    2cfc:	e9 bf f4 ff ff       	jmp    21c0 <interrupt_common>
    2d01:	cc                   	int3

0000000000002d02 <isr.dispatch.2890.is.not.the.isr.number>:
    2d02:	0f 01 ca             	clac
    2d05:	6a 00                	push   $0x0
    2d07:	68 c1 00 00 00       	push   $0xc1
    2d0c:	e9 af f4 ff ff       	jmp    21c0 <interrupt_common>
    2d11:	cc                   	int3

0000000000002d12 <isr.dispatch.2905.is.not.the.isr.number>:
    2d12:	0f 01 ca             	clac
    2d15:	6a 00                	push   $0x0
    2d17:	68 c2 00 00 00       	push   $0xc2
    2d1c:	e9 9f f4 ff ff       	jmp    21c0 <interrupt_common>
    2d21:	cc                   	int3

0000000000002d22 <isr.dispatch.2920.is.not.the.isr.number>:
    2d22:	0f 01 ca             	clac
    2d25:	6a 00                	push   $0x0
    2d27:	68 c3 00 00 00       	push   $0xc3
    2d2c:	e9 8f f4 ff ff       	jmp    21c0 <interrupt_common>
    2d31:	cc                   	int3

0000000000002d32 <isr.dispatch.2935.is.not.the.isr.number>:
    2d32:	0f 01 ca             	clac
    2d35:	6a 00                	push   $0x0
    2d37:	68 c4 00 00 00       	push   $0xc4
    2d3c:	e9 7f f4 ff ff       	jmp    21c0 <interrupt_common>
    2d41:	cc                   	int3

0000000000002d42 <isr.dispatch.2950.is.not.the.isr.number>:
    2d42:	0f 01 ca             	clac
    2d45:	6a 00                	push   $0x0
    2d47:	68 c5 00 00 00       	push   $0xc5
    2d4c:	e9 6f f4 ff ff       	jmp    21c0 <interrupt_common>
    2d51:	cc                   	int3

0000000000002d52 <isr.dispatch.2965.is.not.the.isr.number>:
    2d52:	0f 01 ca             	clac
    2d55:	6a 00                	push   $0x0
    2d57:	68 c6 00 00 00       	push   $0xc6
    2d5c:	e9 5f f4 ff ff       	jmp    21c0 <interrupt_common>
    2d61:	cc                   	int3

0000000000002d62 <isr.dispatch.2980.is.not.the.isr.number>:
    2d62:	0f 01 ca             	clac
    2d65:	6a 00                	push   $0x0
    2d67:	68 c7 00 00 00       	push   $0xc7
    2d6c:	e9 4f f4 ff ff       	jmp    21c0 <interrupt_common>
    2d71:	cc                   	int3

0000000000002d72 <isr.dispatch.2995.is.not.the.isr.number>:
    2d72:	0f 01 ca             	clac
    2d75:	6a 00                	push   $0x0
    2d77:	68 c8 00 00 00       	push   $0xc8
    2d7c:	e9 3f f4 ff ff       	jmp    21c0 <interrupt_common>
    2d81:	cc                   	int3

0000000000002d82 <isr.dispatch.3010.is.not.the.isr.number>:
    2d82:	0f 01 ca             	clac
    2d85:	6a 00                	push   $0x0
    2d87:	68 c9 00 00 00       	push   $0xc9
    2d8c:	e9 2f f4 ff ff       	jmp    21c0 <interrupt_common>
    2d91:	cc                   	int3

0000000000002d92 <isr.dispatch.3025.is.not.the.isr.number>:
    2d92:	0f 01 ca             	clac
    2d95:	6a 00                	push   $0x0
    2d97:	68 ca 00 00 00       	push   $0xca
    2d9c:	e9 1f f4 ff ff       	jmp    21c0 <interrupt_common>
    2da1:	cc                   	int3

0000000000002da2 <isr.dispatch.3040.is.not.the.isr.number>:
    2da2:	0f 01 ca             	clac
    2da5:	6a 00                	push   $0x0
    2da7:	68 cb 00 00 00       	push   $0xcb
    2dac:	e9 0f f4 ff ff       	jmp    21c0 <interrupt_common>
    2db1:	cc                   	int3

0000000000002db2 <isr.dispatch.3055.is.not.the.isr.number>:
    2db2:	0f 01 ca             	clac
    2db5:	6a 00                	push   $0x0
    2db7:	68 cc 00 00 00       	push   $0xcc
    2dbc:	e9 ff f3 ff ff       	jmp    21c0 <interrupt_common>
    2dc1:	cc                   	int3

0000000000002dc2 <isr.dispatch.3070.is.not.the.isr.number>:
    2dc2:	0f 01 ca             	clac
    2dc5:	6a 00                	push   $0x0
    2dc7:	68 cd 00 00 00       	push   $0xcd
    2dcc:	e9 ef f3 ff ff       	jmp    21c0 <interrupt_common>
    2dd1:	cc                   	int3

0000000000002dd2 <isr.dispatch.3085.is.not.the.isr.number>:
    2dd2:	0f 01 ca             	clac
    2dd5:	6a 00                	push   $0x0
    2dd7:	68 ce 00 00 00       	push   $0xce
    2ddc:	e9 df f3 ff ff       	jmp    21c0 <interrupt_common>
    2de1:	cc                   	int3

0000000000002de2 <isr.dispatch.3100.is.not.the.isr.number>:
    2de2:	0f 01 ca             	clac
    2de5:	6a 00                	push   $0x0
    2de7:	68 cf 00 00 00       	push   $0xcf
    2dec:	e9 cf f3 ff ff       	jmp    21c0 <interrupt_common>
    2df1:	cc                   	int3

0000000000002df2 <isr.dispatch.3115.is.not.the.isr.number>:
    2df2:	0f 01 ca             	clac
    2df5:	6a 00                	push   $0x0
    2df7:	68 d0 00 00 00       	push   $0xd0
    2dfc:	e9 bf f3 ff ff       	jmp    21c0 <interrupt_common>
    2e01:	cc                   	int3

0000000000002e02 <isr.dispatch.3130.is.not.the.isr.number>:
    2e02:	0f 01 ca             	clac
    2e05:	6a 00                	push   $0x0
    2e07:	68 d1 00 00 00       	push   $0xd1
    2e0c:	e9 af f3 ff ff       	jmp    21c0 <interrupt_common>
    2e11:	cc                   	int3

0000000000002e12 <isr.dispatch.3145.is.not.the.isr.number>:
    2e12:	0f 01 ca             	clac
    2e15:	6a 00                	push   $0x0
    2e17:	68 d2 00 00 00       	push   $0xd2
    2e1c:	e9 9f f3 ff ff       	jmp    21c0 <interrupt_common>
    2e21:	cc                   	int3

0000000000002e22 <isr.dispatch.3160.is.not.the.isr.number>:
    2e22:	0f 01 ca             	clac
    2e25:	6a 00                	push   $0x0
    2e27:	68 d3 00 00 00       	push   $0xd3
    2e2c:	e9 8f f3 ff ff       	jmp    21c0 <interrupt_common>
    2e31:	cc                   	int3

0000000000002e32 <isr.dispatch.3175.is.not.the.isr.number>:
    2e32:	0f 01 ca             	clac
    2e35:	6a 00                	push   $0x0
    2e37:	68 d4 00 00 00       	push   $0xd4
    2e3c:	e9 7f f3 ff ff       	jmp    21c0 <interrupt_common>
    2e41:	cc                   	int3

0000000000002e42 <isr.dispatch.3190.is.not.the.isr.number>:
    2e42:	0f 01 ca             	clac
    2e45:	6a 00                	push   $0x0
    2e47:	68 d5 00 00 00       	push   $0xd5
    2e4c:	e9 6f f3 ff ff       	jmp    21c0 <interrupt_common>
    2e51:	cc                   	int3

0000000000002e52 <isr.dispatch.3205.is.not.the.isr.number>:
    2e52:	0f 01 ca             	clac
    2e55:	6a 00                	push   $0x0
    2e57:	68 d6 00 00 00       	push   $0xd6
    2e5c:	e9 5f f3 ff ff       	jmp    21c0 <interrupt_common>
    2e61:	cc                   	int3

0000000000002e62 <isr.dispatch.3220.is.not.the.isr.number>:
    2e62:	0f 01 ca             	clac
    2e65:	6a 00                	push   $0x0
    2e67:	68 d7 00 00 00       	push   $0xd7
    2e6c:	e9 4f f3 ff ff       	jmp    21c0 <interrupt_common>
    2e71:	cc                   	int3

0000000000002e72 <isr.dispatch.3235.is.not.the.isr.number>:
    2e72:	0f 01 ca             	clac
    2e75:	6a 00                	push   $0x0
    2e77:	68 d8 00 00 00       	push   $0xd8
    2e7c:	e9 3f f3 ff ff       	jmp    21c0 <interrupt_common>
    2e81:	cc                   	int3

0000000000002e82 <isr.dispatch.3250.is.not.the.isr.number>:
    2e82:	0f 01 ca             	clac
    2e85:	6a 00                	push   $0x0
    2e87:	68 d9 00 00 00       	push   $0xd9
    2e8c:	e9 2f f3 ff ff       	jmp    21c0 <interrupt_common>
    2e91:	cc                   	int3

0000000000002e92 <isr.dispatch.3265.is.not.the.isr.number>:
    2e92:	0f 01 ca             	clac
    2e95:	6a 00                	push   $0x0
    2e97:	68 da 00 00 00       	push   $0xda
    2e9c:	e9 1f f3 ff ff       	jmp    21c0 <interrupt_common>
    2ea1:	cc                   	int3

0000000000002ea2 <isr.dispatch.3280.is.not.the.isr.number>:
    2ea2:	0f 01 ca             	clac
    2ea5:	6a 00                	push   $0x0
    2ea7:	68 db 00 00 00       	push   $0xdb
    2eac:	e9 0f f3 ff ff       	jmp    21c0 <interrupt_common>
    2eb1:	cc                   	int3

0000000000002eb2 <isr.dispatch.3295.is.not.the.isr.number>:
    2eb2:	0f 01 ca             	clac
    2eb5:	6a 00                	push   $0x0
    2eb7:	68 dc 00 00 00       	push   $0xdc
    2ebc:	e9 ff f2 ff ff       	jmp    21c0 <interrupt_common>
    2ec1:	cc                   	int3

0000000000002ec2 <isr.dispatch.3310.is.not.the.isr.number>:
    2ec2:	0f 01 ca             	clac
    2ec5:	6a 00                	push   $0x0
    2ec7:	68 dd 00 00 00       	push   $0xdd
    2ecc:	e9 ef f2 ff ff       	jmp    21c0 <interrupt_common>
    2ed1:	cc                   	int3

0000000000002ed2 <isr.dispatch.3325.is.not.the.isr.number>:
    2ed2:	0f 01 ca             	clac
    2ed5:	6a 00                	push   $0x0
    2ed7:	68 de 00 00 00       	push   $0xde
    2edc:	e9 df f2 ff ff       	jmp    21c0 <interrupt_common>
    2ee1:	cc                   	int3

0000000000002ee2 <isr.dispatch.3340.is.not.the.isr.number>:
    2ee2:	0f 01 ca             	clac
    2ee5:	6a 00                	push   $0x0
    2ee7:	68 df 00 00 00       	push   $0xdf
    2eec:	e9 cf f2 ff ff       	jmp    21c0 <interrupt_common>
    2ef1:	cc                   	int3

0000000000002ef2 <isr.dispatch.3355.is.not.the.isr.number>:
    2ef2:	0f 01 ca             	clac
    2ef5:	6a 00                	push   $0x0
    2ef7:	68 e0 00 00 00       	push   $0xe0
    2efc:	e9 bf f2 ff ff       	jmp    21c0 <interrupt_common>
    2f01:	cc                   	int3

0000000000002f02 <isr.dispatch.3370.is.not.the.isr.number>:
    2f02:	0f 01 ca             	clac
    2f05:	6a 00                	push   $0x0
    2f07:	68 e1 00 00 00       	push   $0xe1
    2f0c:	e9 af f2 ff ff       	jmp    21c0 <interrupt_common>
    2f11:	cc                   	int3

0000000000002f12 <isr.dispatch.3385.is.not.the.isr.number>:
    2f12:	0f 01 ca             	clac
    2f15:	6a 00                	push   $0x0
    2f17:	68 e2 00 00 00       	push   $0xe2
    2f1c:	e9 9f f2 ff ff       	jmp    21c0 <interrupt_common>
    2f21:	cc                   	int3

0000000000002f22 <isr.dispatch.3400.is.not.the.isr.number>:
    2f22:	0f 01 ca             	clac
    2f25:	6a 00                	push   $0x0
    2f27:	68 e3 00 00 00       	push   $0xe3
    2f2c:	e9 8f f2 ff ff       	jmp    21c0 <interrupt_common>
    2f31:	cc                   	int3

0000000000002f32 <isr.dispatch.3415.is.not.the.isr.number>:
    2f32:	0f 01 ca             	clac
    2f35:	6a 00                	push   $0x0
    2f37:	68 e4 00 00 00       	push   $0xe4
    2f3c:	e9 7f f2 ff ff       	jmp    21c0 <interrupt_common>
    2f41:	cc                   	int3

0000000000002f42 <isr.dispatch.3430.is.not.the.isr.number>:
    2f42:	0f 01 ca             	clac
    2f45:	6a 00                	push   $0x0
    2f47:	68 e5 00 00 00       	push   $0xe5
    2f4c:	e9 6f f2 ff ff       	jmp    21c0 <interrupt_common>
    2f51:	cc                   	int3

0000000000002f52 <isr.dispatch.3445.is.not.the.isr.number>:
    2f52:	0f 01 ca             	clac
    2f55:	6a 00                	push   $0x0
    2f57:	68 e6 00 00 00       	push   $0xe6
    2f5c:	e9 5f f2 ff ff       	jmp    21c0 <interrupt_common>
    2f61:	cc                   	int3

0000000000002f62 <isr.dispatch.3460.is.not.the.isr.number>:
    2f62:	0f 01 ca             	clac
    2f65:	6a 00                	push   $0x0
    2f67:	68 e7 00 00 00       	push   $0xe7
    2f6c:	e9 4f f2 ff ff       	jmp    21c0 <interrupt_common>
    2f71:	cc                   	int3

0000000000002f72 <isr.dispatch.3475.is.not.the.isr.number>:
    2f72:	0f 01 ca             	clac
    2f75:	6a 00                	push   $0x0
    2f77:	68 e8 00 00 00       	push   $0xe8
    2f7c:	e9 3f f2 ff ff       	jmp    21c0 <interrupt_common>
    2f81:	cc                   	int3

0000000000002f82 <isr.dispatch.3490.is.not.the.isr.number>:
    2f82:	0f 01 ca             	clac
    2f85:	6a 00                	push   $0x0
    2f87:	68 e9 00 00 00       	push   $0xe9
    2f8c:	e9 2f f2 ff ff       	jmp    21c0 <interrupt_common>
    2f91:	cc                   	int3

0000000000002f92 <isr.dispatch.3505.is.not.the.isr.number>:
    2f92:	0f 01 ca             	clac
    2f95:	6a 00                	push   $0x0
    2f97:	68 ea 00 00 00       	push   $0xea
    2f9c:	e9 1f f2 ff ff       	jmp    21c0 <interrupt_common>
    2fa1:	cc                   	int3

0000000000002fa2 <isr.dispatch.3520.is.not.the.isr.number>:
    2fa2:	0f 01 ca             	clac
    2fa5:	6a 00                	push   $0x0
    2fa7:	68 eb 00 00 00       	push   $0xeb
    2fac:	e9 0f f2 ff ff       	jmp    21c0 <interrupt_common>
    2fb1:	cc                   	int3

0000000000002fb2 <isr.dispatch.3535.is.not.the.isr.number>:
    2fb2:	0f 01 ca             	clac
    2fb5:	6a 00                	push   $0x0
    2fb7:	68 ec 00 00 00       	push   $0xec
    2fbc:	e9 ff f1 ff ff       	jmp    21c0 <interrupt_common>
    2fc1:	cc                   	int3

0000000000002fc2 <isr.dispatch.3550.is.not.the.isr.number>:
    2fc2:	0f 01 ca             	clac
    2fc5:	6a 00                	push   $0x0
    2fc7:	68 ed 00 00 00       	push   $0xed
    2fcc:	e9 ef f1 ff ff       	jmp    21c0 <interrupt_common>
    2fd1:	cc                   	int3

0000000000002fd2 <isr.dispatch.3565.is.not.the.isr.number>:
    2fd2:	0f 01 ca             	clac
    2fd5:	6a 00                	push   $0x0
    2fd7:	68 ee 00 00 00       	push   $0xee
    2fdc:	e9 df f1 ff ff       	jmp    21c0 <interrupt_common>
    2fe1:	cc                   	int3

0000000000002fe2 <isr.dispatch.3580.is.not.the.isr.number>:
    2fe2:	0f 01 ca             	clac
    2fe5:	6a 00                	push   $0x0
    2fe7:	68 ef 00 00 00       	push   $0xef
    2fec:	e9 cf f1 ff ff       	jmp    21c0 <interrupt_common>
    2ff1:	cc                   	int3

0000000000002ff2 <isr.dispatch.3595.is.not.the.isr.number>:
    2ff2:	0f 01 ca             	clac
    2ff5:	6a 00                	push   $0x0
    2ff7:	68 f0 00 00 00       	push   $0xf0
    2ffc:	e9 bf f1 ff ff       	jmp    21c0 <interrupt_common>
    3001:	cc                   	int3

0000000000003002 <isr.dispatch.3610.is.not.the.isr.number>:
    3002:	0f 01 ca             	clac
    3005:	6a 00                	push   $0x0
    3007:	68 f1 00 00 00       	push   $0xf1
    300c:	e9 af f1 ff ff       	jmp    21c0 <interrupt_common>
    3011:	cc                   	int3

0000000000003012 <isr.dispatch.3625.is.not.the.isr.number>:
    3012:	0f 01 ca             	clac
    3015:	6a 00                	push   $0x0
    3017:	68 f2 00 00 00       	push   $0xf2
    301c:	e9 9f f1 ff ff       	jmp    21c0 <interrupt_common>
    3021:	cc                   	int3

0000000000003022 <isr.dispatch.3640.is.not.the.isr.number>:
    3022:	0f 01 ca             	clac
    3025:	6a 00                	push   $0x0
    3027:	68 f3 00 00 00       	push   $0xf3
    302c:	e9 8f f1 ff ff       	jmp    21c0 <interrupt_common>
    3031:	cc                   	int3

0000000000003032 <isr.dispatch.3655.is.not.the.isr.number>:
    3032:	0f 01 ca             	clac
    3035:	6a 00                	push   $0x0
    3037:	68 f4 00 00 00       	push   $0xf4
    303c:	e9 7f f1 ff ff       	jmp    21c0 <interrupt_common>
    3041:	cc                   	int3

0000000000003042 <isr.dispatch.3670.is.not.the.isr.number>:
    3042:	0f 01 ca             	clac
    3045:	6a 00                	push   $0x0
    3047:	68 f5 00 00 00       	push   $0xf5
    304c:	e9 6f f1 ff ff       	jmp    21c0 <interrupt_common>
    3051:	cc                   	int3

0000000000003052 <isr.dispatch.3685.is.not.the.isr.number>:
    3052:	0f 01 ca             	clac
    3055:	6a 00                	push   $0x0
    3057:	68 f6 00 00 00       	push   $0xf6
    305c:	e9 5f f1 ff ff       	jmp    21c0 <interrupt_common>
    3061:	cc                   	int3

0000000000003062 <isr.dispatch.3700.is.not.the.isr.number>:
    3062:	0f 01 ca             	clac
    3065:	6a 00                	push   $0x0
    3067:	68 f7 00 00 00       	push   $0xf7
    306c:	e9 4f f1 ff ff       	jmp    21c0 <interrupt_common>
    3071:	cc                   	int3

0000000000003072 <isr.dispatch.3715.is.not.the.isr.number>:
    3072:	0f 01 ca             	clac
    3075:	6a 00                	push   $0x0
    3077:	68 f8 00 00 00       	push   $0xf8
    307c:	e9 3f f1 ff ff       	jmp    21c0 <interrupt_common>
    3081:	cc                   	int3

0000000000003082 <isr.dispatch.3730.is.not.the.isr.number>:
    3082:	0f 01 ca             	clac
    3085:	6a 00                	push   $0x0
    3087:	68 f9 00 00 00       	push   $0xf9
    308c:	e9 2f f1 ff ff       	jmp    21c0 <interrupt_common>
    3091:	cc                   	int3

0000000000003092 <isr.dispatch.3745.is.not.the.isr.number>:
    3092:	0f 01 ca             	clac
    3095:	6a 00                	push   $0x0
    3097:	68 fa 00 00 00       	push   $0xfa
    309c:	e9 1f f1 ff ff       	jmp    21c0 <interrupt_common>
    30a1:	cc                   	int3

00000000000030a2 <isr.dispatch.3760.is.not.the.isr.number>:
    30a2:	0f 01 ca             	clac
    30a5:	6a 00                	push   $0x0
    30a7:	68 fb 00 00 00       	push   $0xfb
    30ac:	e9 0f f1 ff ff       	jmp    21c0 <interrupt_common>
    30b1:	cc                   	int3

00000000000030b2 <isr.dispatch.3775.is.not.the.isr.number>:
    30b2:	0f 01 ca             	clac
    30b5:	6a 00                	push   $0x0
    30b7:	68 fc 00 00 00       	push   $0xfc
    30bc:	e9 ff f0 ff ff       	jmp    21c0 <interrupt_common>
    30c1:	cc                   	int3

00000000000030c2 <isr.dispatch.3790.is.not.the.isr.number>:
    30c2:	0f 01 ca             	clac
    30c5:	6a 00                	push   $0x0
    30c7:	68 fd 00 00 00       	push   $0xfd
    30cc:	e9 ef f0 ff ff       	jmp    21c0 <interrupt_common>
    30d1:	cc                   	int3

00000000000030d2 <isr.dispatch.3805.is.not.the.isr.number>:
    30d2:	0f 01 ca             	clac
    30d5:	6a 00                	push   $0x0
    30d7:	68 fe 00 00 00       	push   $0xfe
    30dc:	e9 df f0 ff ff       	jmp    21c0 <interrupt_common>
    30e1:	cc                   	int3

00000000000030e2 <isr.dispatch.3820.is.not.the.isr.number>:
    30e2:	0f 01 ca             	clac
    30e5:	6a 00                	push   $0x0
    30e7:	68 ff 00 00 00       	push   $0xff
    30ec:	e9 cf f0 ff ff       	jmp    21c0 <interrupt_common>
    30f1:	cc                   	int3
    30f2:	66 2e 0f 1f 84 00 00 	cs nopw 0x0(%rax,%rax,1)
    30f9:	00 00 00 
    30fc:	0f 1f 40 00          	nopl   0x0(%rax)

0000000000003100 <_ZN4ours5panicEv>:
#include <ours/panic.hpp>

namespace ours {
    NO_RETURN
    auto panic() -> void { 
    3100:	55                   	push   %rbp
    3101:	48 89 e5             	mov    %rsp,%rbp
        while (1); 
    3104:	eb 00                	jmp    3106 <_ZN4ours5panicEv+0x6>
    3106:	eb fe                	jmp    3106 <_ZN4ours5panicEv+0x6>
    3108:	0f 1f 84 00 00 00 00 	nopl   0x0(%rax,%rax,1)
    310f:	00 

0000000000003110 <_ZN4ours8do_panicENSt3__117basic_string_viewIcNS0_11char_traitsIcEEEERKNS0_17basic_format_argsINS0_20basic_format_contextINS0_20back_insert_iteratorINS0_8__format15__output_bufferIcEEEEcEEEE>:
    }

    NO_RETURN
    auto do_panic(ustl::views::StringView fmt, ustl::fmt::FormatArgs const &args) -> void { 
    3110:	55                   	push   %rbp
    3111:	48 89 e5             	mov    %rsp,%rbp
    3114:	48 89 7d f0          	mov    %rdi,-0x10(%rbp)
    3118:	48 89 75 f8          	mov    %rsi,-0x8(%rbp)
    311c:	48 89 55 e8          	mov    %rdx,-0x18(%rbp)
        while (1); 
    3120:	eb fe                	jmp    3120 <_ZN4ours8do_panicENSt3__117basic_string_viewIcNS0_11char_traitsIcEEEERKNS0_17basic_format_argsINS0_20basic_format_contextINS0_20back_insert_iteratorINS0_8__format15__output_bufferIcEEEEcEEEE+0x10>
    3122:	66 2e 0f 1f 84 00 00 	cs nopw 0x0(%rax,%rax,1)
    3129:	00 00 00 
    312c:	0f 1f 40 00          	nopl   0x0(%rax)

0000000000003130 <_ZN4ours7CpuMaskCI2NSt3__16bitsetILm32EEEEy>:
        : public ustl::BitSet<MAX_CPU_NUM>
    {
        typedef CpuMask                     Self;
        typedef ustl::BitSet<MAX_CPU_NUM>   Base;

        using Base::Base;
    3130:	55                   	push   %rbp
    3131:	48 89 e5             	mov    %rsp,%rbp
    3134:	48 83 ec 10          	sub    $0x10,%rsp
    3138:	48 89 7d f8          	mov    %rdi,-0x8(%rbp)
    313c:	48 89 75 f0          	mov    %rsi,-0x10(%rbp)
    3140:	48 8b 7d f8          	mov    -0x8(%rbp),%rdi
    3144:	48 8b 75 f0          	mov    -0x10(%rbp),%rsi
    3148:	e8 23 00 00 00       	call   3170 <_ZNSt3__16bitsetILm32EEC2B8nn210000Ey>
    314d:	48 83 c4 10          	add    $0x10,%rsp
    3151:	5d                   	pop    %rbp
    3152:	c3                   	ret
    3153:	66 2e 0f 1f 84 00 00 	cs nopw 0x0(%rax,%rax,1)
    315a:	00 00 00 
    315d:	0f 1f 00             	nopl   (%rax)

0000000000003160 <_ZN4ours4task6Thread7Current4idleEv>:
      public:
        static auto aspace() -> mem::VmAspace * {
            return 0;
        }

        static auto idle() -> void {
    3160:	55                   	push   %rbp
    3161:	48 89 e5             	mov    %rsp,%rbp
        }
    3164:	5d                   	pop    %rbp
    3165:	c3                   	ret
    3166:	66 2e 0f 1f 84 00 00 	cs nopw 0x0(%rax,%rax,1)
    316d:	00 00 00 

0000000000003170 <_ZNSt3__16bitsetILm32EEC2B8nn210000Ey>:
  typedef typename __base::reference reference;
  typedef typename __base::__const_reference __const_reference;

  // 23.3.5.1 constructors:
  _LIBCPP_HIDE_FROM_ABI _LIBCPP_CONSTEXPR bitset() _NOEXCEPT {}
  _LIBCPP_HIDE_FROM_ABI _LIBCPP_CONSTEXPR bitset(unsigned long long __v) _NOEXCEPT : __base(__v) {}
    3170:	55                   	push   %rbp
    3171:	48 89 e5             	mov    %rsp,%rbp
    3174:	48 83 ec 10          	sub    $0x10,%rsp
    3178:	48 89 7d f8          	mov    %rdi,-0x8(%rbp)
    317c:	48 89 75 f0          	mov    %rsi,-0x10(%rbp)
    3180:	48 8b 7d f8          	mov    -0x8(%rbp),%rdi
    3184:	48 8b 75 f0          	mov    -0x10(%rbp),%rsi
    3188:	e8 13 00 00 00       	call   31a0 <_ZNSt3__18__bitsetILm1ELm32EEC2Ey>
    318d:	48 83 c4 10          	add    $0x10,%rsp
    3191:	5d                   	pop    %rbp
    3192:	c3                   	ret
    3193:	66 2e 0f 1f 84 00 00 	cs nopw 0x0(%rax,%rax,1)
    319a:	00 00 00 
    319d:	0f 1f 00             	nopl   (%rax)

00000000000031a0 <_ZNSt3__18__bitsetILm1ELm32EEC2Ey>:
                                        : static_cast<__storage_type>(__v) & ((__storage_type(1) << _Size) - 1)) {}
    31a0:	55                   	push   %rbp
    31a1:	48 89 e5             	mov    %rsp,%rbp
    31a4:	48 89 7d f8          	mov    %rdi,-0x8(%rbp)
    31a8:	48 89 75 f0          	mov    %rsi,-0x10(%rbp)
    31ac:	48 8b 45 f8          	mov    -0x8(%rbp),%rax
    31b0:	48 b9 ff ff ff ff 00 	movabs $0xffffffff,%rcx
    31b7:	00 00 00 
    31ba:	48 23 4d f0          	and    -0x10(%rbp),%rcx
    : __first_(_Size == __bits_per_word ? static_cast<__storage_type>(__v)
    31be:	48 89 08             	mov    %rcx,(%rax)
                                        : static_cast<__storage_type>(__v) & ((__storage_type(1) << _Size) - 1)) {}
    31c1:	5d                   	pop    %rbp
    31c2:	c3                   	ret
    31c3:	66 2e 0f 1f 84 00 00 	cs nopw 0x0(%rax,%rax,1)
    31ca:	00 00 00 
    31cd:	0f 1f 00             	nopl   (%rax)

00000000000031d0 <_ZNSt3__15arrayIlLm32EEixB8nn210000Em>:
  _LIBCPP_HIDE_FROM_ABI _LIBCPP_CONSTEXPR size_type size() const _NOEXCEPT { return _Size; }
  _LIBCPP_HIDE_FROM_ABI _LIBCPP_CONSTEXPR size_type max_size() const _NOEXCEPT { return _Size; }
  [[__nodiscard__]] _LIBCPP_HIDE_FROM_ABI _LIBCPP_CONSTEXPR bool empty() const _NOEXCEPT { return _Size == 0; }

  // element access:
  _LIBCPP_HIDE_FROM_ABI _LIBCPP_CONSTEXPR_SINCE_CXX17 reference operator[](size_type __n) _NOEXCEPT {
    31d0:	55                   	push   %rbp
    31d1:	48 89 e5             	mov    %rsp,%rbp
    31d4:	48 89 7d f8          	mov    %rdi,-0x8(%rbp)
    31d8:	48 89 75 f0          	mov    %rsi,-0x10(%rbp)
    31dc:	48 8b 45 f8          	mov    -0x8(%rbp),%rax
    _LIBCPP_ASSERT_VALID_ELEMENT_ACCESS(__n < _Size, "out-of-bounds access in std::array<T, N>");
    return __elems_[__n];
    31e0:	48 8b 4d f0          	mov    -0x10(%rbp),%rcx
    31e4:	48 c1 e1 03          	shl    $0x3,%rcx
    31e8:	48 01 c8             	add    %rcx,%rax
    31eb:	5d                   	pop    %rbp
    31ec:	c3                   	ret
    31ed:	0f 1f 00             	nopl   (%rax)

00000000000031f0 <_ZN4arch5MsrIo5writeImEEvNS_10MsrRegAddrET_>:
        MSRC001_102D = 0xc001'102d,
    };

    struct MsrIo {
        template <typename Int>
        static auto write(MsrRegAddr addr, Int value) -> void {
    31f0:	55                   	push   %rbp
    31f1:	48 89 e5             	mov    %rsp,%rbp
    31f4:	89 7d fc             	mov    %edi,-0x4(%rbp)
    31f7:	48 89 75 f0          	mov    %rsi,-0x10(%rbp)
            // static_assert(internal::IsSupportedInt<Int>::value, "unsupported register access width");
            u64 v = reinterpret_cast<u64>(value);
    31fb:	48 8b 45 f0          	mov    -0x10(%rbp),%rax
    31ff:	48 89 45 e8          	mov    %rax,-0x18(%rbp)
            // The high-order 32 bits of each register are ignored so they need not be
            // cleared. u32 is 32 bits on x86-32 so that values will match the
            // register size, but 64 bits on x86-64 so that the compiler doesn't think
            // it needs to add an instruction to clear the high bits.
            u32 lo = static_cast<u32>(v);
    3203:	48 8b 45 e8          	mov    -0x18(%rbp),%rax
    3207:	89 45 e4             	mov    %eax,-0x1c(%rbp)
            u32 hi = static_cast<u32>(v >> 32);
    320a:	48 8b 45 e8          	mov    -0x18(%rbp),%rax
    320e:	48 c1 e8 20          	shr    $0x20,%rax
    3212:	89 45 e0             	mov    %eax,-0x20(%rbp)
            asm volatile("wrmsr" : : "c"(addr), "a"(lo), "d"(hi));
    3215:	8b 4d fc             	mov    -0x4(%rbp),%ecx
    3218:	8b 45 e4             	mov    -0x1c(%rbp),%eax
    321b:	8b 55 e0             	mov    -0x20(%rbp),%edx
    321e:	0f 30                	wrmsr
        }
    3220:	5d                   	pop    %rbp
    3221:	c3                   	ret
    3222:	66 2e 0f 1f 84 00 00 	cs nopw 0x0(%rax,%rax,1)
    3229:	00 00 00 
    322c:	0f 1f 40 00          	nopl   0x0(%rax)

0000000000003230 <_ZN4ours5panicIJEEEvNSt3__117basic_string_viewIcNS1_11char_traitsIcEEEEDpOT_>:
    auto do_panic(ustl::views::StringView fmt, ustl::fmt::FormatArgs const &args) -> void;

    template <typename... Args>
    NO_RETURN
    auto panic(ustl::views::StringView fmt, Args&&... args) -> void
    {  do_panic(fmt, ustl::fmt::make_format_args(args...));  }
    3230:	55                   	push   %rbp
    3231:	48 89 e5             	mov    %rsp,%rbp
    3234:	48 83 ec 40          	sub    $0x40,%rsp
    3238:	48 89 7d f0          	mov    %rdi,-0x10(%rbp)
    323c:	48 89 75 f8          	mov    %rsi,-0x8(%rbp)
    3240:	48 8b 45 f0          	mov    -0x10(%rbp),%rax
    3244:	48 89 45 e0          	mov    %rax,-0x20(%rbp)
    3248:	48 8b 45 f8          	mov    -0x8(%rbp),%rax
    324c:	48 89 45 e8          	mov    %rax,-0x18(%rbp)
    3250:	e8 6b 00 00 00       	call   32c0 <_ZNSt3__116make_format_argsB8nn210000INS_20basic_format_contextINS_20back_insert_iteratorINS_8__format15__output_bufferIcEEEEcEEJEEENS_18__format_arg_storeIT_JDpT0_EEEDpRSA_>
    3255:	48 89 45 c0          	mov    %rax,-0x40(%rbp)
    3259:	48 8d 7d c8          	lea    -0x38(%rbp),%rdi
    325d:	48 8d 75 c0          	lea    -0x40(%rbp),%rsi
    3261:	e8 7a 00 00 00       	call   32e0 <_ZNSt3__117basic_format_argsINS_20basic_format_contextINS_20back_insert_iteratorINS_8__format15__output_bufferIcEEEEcEEEC2B8nn210000IJEEERKNS_18__format_arg_storeIS7_JDpT_EEE>
    3266:	48 8b 7d e0          	mov    -0x20(%rbp),%rdi
    326a:	48 8b 75 e8          	mov    -0x18(%rbp),%rsi
    326e:	48 8d 55 c8          	lea    -0x38(%rbp),%rdx
    3272:	e8 99 fe ff ff       	call   3110 <_ZN4ours8do_panicENSt3__117basic_string_viewIcNS0_11char_traitsIcEEEERKNS0_17basic_format_argsINS0_20basic_format_contextINS0_20back_insert_iteratorINS0_8__format15__output_bufferIcEEEEcEEEE>
    3277:	66 0f 1f 84 00 00 00 	nopw   0x0(%rax,%rax,1)
    327e:	00 00 

0000000000003280 <_ZNSt3__117basic_string_viewIcNS_11char_traitsIcEEEC2B8nn210000EPKc>:
  constexpr explicit _LIBCPP_HIDE_FROM_ABI basic_string_view(_Range&& __r)
      : __data_(ranges::data(__r)), __size_(ranges::size(__r)) {}
#  endif // _LIBCPP_STD_VER >= 23

  _LIBCPP_CONSTEXPR _LIBCPP_HIDE_FROM_ABI basic_string_view(const _CharT* __s)
      : __data_(__s), __size_(std::__char_traits_length_checked<_Traits>(__s)) {}
    3280:	55                   	push   %rbp
    3281:	48 89 e5             	mov    %rsp,%rbp
    3284:	48 83 ec 20          	sub    $0x20,%rsp
    3288:	48 89 7d f8          	mov    %rdi,-0x8(%rbp)
    328c:	48 89 75 f0          	mov    %rsi,-0x10(%rbp)
    3290:	48 8b 45 f8          	mov    -0x8(%rbp),%rax
    3294:	48 89 45 e8          	mov    %rax,-0x18(%rbp)
    3298:	48 8b 4d f0          	mov    -0x10(%rbp),%rcx
    329c:	48 89 08             	mov    %rcx,(%rax)
    329f:	48 8b 7d f0          	mov    -0x10(%rbp),%rdi
    32a3:	e8 98 00 00 00       	call   3340 <_ZNSt3__128__char_traits_length_checkedB8nn210000INS_11char_traitsIcEEEEmPKNT_9char_typeE>
    32a8:	48 89 c1             	mov    %rax,%rcx
    32ab:	48 8b 45 e8          	mov    -0x18(%rbp),%rax
    32af:	48 89 48 08          	mov    %rcx,0x8(%rax)
    32b3:	48 83 c4 20          	add    $0x20,%rsp
    32b7:	5d                   	pop    %rbp
    32b8:	c3                   	ret
    32b9:	0f 1f 80 00 00 00 00 	nopl   0x0(%rax)

00000000000032c0 <_ZNSt3__116make_format_argsB8nn210000INS_20basic_format_contextINS_20back_insert_iteratorINS_8__format15__output_bufferIcEEEEcEEJEEENS_18__format_arg_storeIT_JDpT0_EEEDpRSA_>:
#  if _LIBCPP_HAS_WIDE_CHARACTERS
using wformat_args = basic_format_args<wformat_context>;
#  endif

template <class _Context = format_context, class... _Args>
[[nodiscard]] _LIBCPP_HIDE_FROM_ABI __format_arg_store<_Context, _Args...> make_format_args(_Args&... __args) {
    32c0:	55                   	push   %rbp
    32c1:	48 89 e5             	mov    %rsp,%rbp
    32c4:	48 83 ec 10          	sub    $0x10,%rsp
    32c8:	48 8d 7d f8          	lea    -0x8(%rbp),%rdi
  return std::__format_arg_store<_Context, _Args...>(__args...);
    32cc:	e8 2f 00 00 00       	call   3300 <_ZNSt3__118__format_arg_storeINS_20basic_format_contextINS_20back_insert_iteratorINS_8__format15__output_bufferIcEEEEcEEJEEC2B8nn210000Ev>
    32d1:	48 8b 45 f8          	mov    -0x8(%rbp),%rax
    32d5:	48 83 c4 10          	add    $0x10,%rsp
    32d9:	5d                   	pop    %rbp
    32da:	c3                   	ret
    32db:	0f 1f 44 00 00       	nopl   0x0(%rax,%rax,1)

00000000000032e0 <_ZNSt3__117basic_format_argsINS_20basic_format_contextINS_20back_insert_iteratorINS_8__format15__output_bufferIcEEEEcEEEC2B8nn210000IJEEERKNS_18__format_arg_storeIS7_JDpT_EEE>:
template <class _Context>
class _LIBCPP_TEMPLATE_VIS basic_format_args {
public:
  template <class... _Args>
  _LIBCPP_HIDE_FROM_ABI basic_format_args(const __format_arg_store<_Context, _Args...>& __store) noexcept
      : __size_(sizeof...(_Args)) {
    32e0:	55                   	push   %rbp
    32e1:	48 89 e5             	mov    %rsp,%rbp
    32e4:	48 89 7d f8          	mov    %rdi,-0x8(%rbp)
    32e8:	48 89 75 f0          	mov    %rsi,-0x10(%rbp)
    32ec:	48 8b 45 f8          	mov    -0x8(%rbp),%rax
    32f0:	48 c7 00 00 00 00 00 	movq   $0x0,(%rax)
        __values_ = __store.__storage.__values_;
        __types_  = __store.__storage.__types_;
      } else
        __args_ = __store.__storage.__args_;
    }
  }
    32f7:	5d                   	pop    %rbp
    32f8:	c3                   	ret
    32f9:	0f 1f 80 00 00 00 00 	nopl   0x0(%rax)

0000000000003300 <_ZNSt3__118__format_arg_storeINS_20basic_format_contextINS_20back_insert_iteratorINS_8__format15__output_bufferIcEEEEcEEJEEC2B8nn210000Ev>:

} // namespace __format

template <class _Context, class... _Args>
struct _LIBCPP_TEMPLATE_VIS __format_arg_store {
  _LIBCPP_HIDE_FROM_ABI __format_arg_store(_Args&... __args) noexcept {
    3300:	55                   	push   %rbp
    3301:	48 89 e5             	mov    %rsp,%rbp
    3304:	48 83 ec 10          	sub    $0x10,%rsp
    3308:	48 89 7d f8          	mov    %rdi,-0x8(%rbp)
    330c:	48 8b 7d f8          	mov    -0x8(%rbp),%rdi
    3310:	e8 0b 00 00 00       	call   3320 <_ZNSt3__18__format25__packed_format_arg_storeINS_20basic_format_contextINS_20back_insert_iteratorINS0_15__output_bufferIcEEEEcEELm0EEC2Ev>
      if constexpr (__format::__use_packed_format_arg_store(sizeof...(_Args)))
        __format::__create_packed_storage(__storage.__types_, __storage.__values_, __args...);
      else
        __format::__store_basic_format_arg<_Context>(__storage.__args_, __args...);
    }
  }
    3315:	48 83 c4 10          	add    $0x10,%rsp
    3319:	5d                   	pop    %rbp
    331a:	c3                   	ret
    331b:	0f 1f 44 00 00       	nopl   0x0(%rax,%rax,1)

0000000000003320 <_ZNSt3__18__format25__packed_format_arg_storeINS_20basic_format_contextINS_20back_insert_iteratorINS0_15__output_bufferIcEEEEcEELm0EEC2Ev>:
struct __packed_format_arg_store<_Context, 0> {
    3320:	55                   	push   %rbp
    3321:	48 89 e5             	mov    %rsp,%rbp
    3324:	48 89 7d f8          	mov    %rdi,-0x8(%rbp)
    3328:	48 8b 45 f8          	mov    -0x8(%rbp),%rax
  uint64_t __types_ = 0;
    332c:	48 c7 00 00 00 00 00 	movq   $0x0,(%rax)
struct __packed_format_arg_store<_Context, 0> {
    3333:	5d                   	pop    %rbp
    3334:	c3                   	ret
    3335:	66 2e 0f 1f 84 00 00 	cs nopw 0x0(%rax,%rax,1)
    333c:	00 00 00 
    333f:	90                   	nop

0000000000003340 <_ZNSt3__128__char_traits_length_checkedB8nn210000INS_11char_traitsIcEEEEmPKNT_9char_typeE>:
__char_traits_length_checked(const typename _Traits::char_type* __s) _NOEXCEPT {
    3340:	55                   	push   %rbp
    3341:	48 89 e5             	mov    %rsp,%rbp
    3344:	48 83 ec 10          	sub    $0x10,%rsp
    3348:	48 89 7d f8          	mov    %rdi,-0x8(%rbp)
         _Traits::length(__s);
    334c:	48 8b 7d f8          	mov    -0x8(%rbp),%rdi
    3350:	e8 0b 00 00 00       	call   3360 <_ZNSt3__111char_traitsIcE6lengthB8nn210000EPKc>
  return _LIBCPP_ASSERT_NON_NULL(
    3355:	48 83 c4 10          	add    $0x10,%rsp
    3359:	5d                   	pop    %rbp
    335a:	c3                   	ret
    335b:	0f 1f 44 00 00       	nopl   0x0(%rax,%rax,1)

0000000000003360 <_ZNSt3__111char_traitsIcE6lengthB8nn210000EPKc>:
    } else {
      return __builtin_memcmp(__lhs, __rhs, __count);
    }
  }

  static inline _LIBCPP_HIDE_FROM_ABI size_t _LIBCPP_CONSTEXPR_SINCE_CXX17 length(const char_type* __s) _NOEXCEPT {
    3360:	55                   	push   %rbp
    3361:	48 89 e5             	mov    %rsp,%rbp
    3364:	48 83 ec 10          	sub    $0x10,%rsp
    3368:	48 89 7d f8          	mov    %rdi,-0x8(%rbp)
    return std::__constexpr_strlen(__s);
    336c:	48 8b 7d f8          	mov    -0x8(%rbp),%rdi
    3370:	e8 0b 00 00 00       	call   3380 <_ZNSt3__118__constexpr_strlenB8nn210000IcEEmPKT_>
    3375:	48 83 c4 10          	add    $0x10,%rsp
    3379:	5d                   	pop    %rbp
    337a:	c3                   	ret
    337b:	0f 1f 44 00 00       	nopl   0x0(%rax,%rax,1)

0000000000003380 <_ZNSt3__118__constexpr_strlenB8nn210000IcEEmPKT_>:
template <>
inline const bool __is_char_type<char8_t> = true;
#endif

template <class _Tp>
inline _LIBCPP_HIDE_FROM_ABI _LIBCPP_CONSTEXPR_SINCE_CXX14 size_t __constexpr_strlen(const _Tp* __str) _NOEXCEPT {
    3380:	55                   	push   %rbp
    3381:	48 89 e5             	mov    %rsp,%rbp
    3384:	48 83 ec 10          	sub    $0x10,%rsp
    3388:	48 89 7d f8          	mov    %rdi,-0x8(%rbp)
    size_t __i = 0;
    for (; __str[__i] != '\0'; ++__i)
      ;
    return __i;
  }
  return __builtin_strlen(reinterpret_cast<const char*>(__str));
    338c:	48 8b 7d f8          	mov    -0x8(%rbp),%rdi
    3390:	e8 eb 43 01 00       	call   17780 <strlen>
    3395:	48 83 c4 10          	add    $0x10,%rsp
    3399:	5d                   	pop    %rbp
    339a:	c3                   	ret
    339b:	0f 1f 44 00 00       	nopl   0x0(%rax,%rax,1)

00000000000033a0 <_ZN4ours12for_each_cpuIZNS_8CpuLocal4initERKNS_7CpuMaskEE3$_0Qsr4ustl6traitsE9InvocableIT_jEEEvS4_OS6_>:
        return CpuStates::s_cpu_states;
    }

    template <typename F>
        requires ustl::traits::Invocable<F, CpuNum>
    auto for_each_cpu(CpuMask const &cpu_mask, F &&functor) -> void {
    33a0:	55                   	push   %rbp
    33a1:	48 89 e5             	mov    %rsp,%rbp
    33a4:	48 83 ec 20          	sub    $0x20,%rsp
    33a8:	48 89 7d f8          	mov    %rdi,-0x8(%rbp)
    33ac:	48 89 75 f0          	mov    %rsi,-0x10(%rbp)
        for (auto i = 0; i < cpu_mask.size(); ++i) {
    33b0:	c7 45 ec 00 00 00 00 	movl   $0x0,-0x14(%rbp)
    33b7:	48 63 45 ec          	movslq -0x14(%rbp),%rax
    33bb:	48 89 45 e0          	mov    %rax,-0x20(%rbp)
    33bf:	48 8b 7d f8          	mov    -0x8(%rbp),%rdi
    33c3:	e8 98 03 00 00       	call   3760 <_ZNKSt3__16bitsetILm32EE4sizeB8nn210000Ev>
    33c8:	48 89 c1             	mov    %rax,%rcx
    33cb:	48 8b 45 e0          	mov    -0x20(%rbp),%rax
    33cf:	48 39 c8             	cmp    %rcx,%rax
    33d2:	73 33                	jae    3407 <_ZN4ours12for_each_cpuIZNS_8CpuLocal4initERKNS_7CpuMaskEE3$_0Qsr4ustl6traitsE9InvocableIT_jEEEvS4_OS6_+0x67>
            if (cpu_mask.test(i)) {
    33d4:	48 8b 7d f8          	mov    -0x8(%rbp),%rdi
    33d8:	48 63 75 ec          	movslq -0x14(%rbp),%rsi
    33dc:	e8 8f 03 00 00       	call   3770 <_ZNKSt3__16bitsetILm32EE4testB8nn210000Em>
    33e1:	a8 01                	test   $0x1,%al
    33e3:	75 02                	jne    33e7 <_ZN4ours12for_each_cpuIZNS_8CpuLocal4initERKNS_7CpuMaskEE3$_0Qsr4ustl6traitsE9InvocableIT_jEEEvS4_OS6_+0x47>
    33e5:	eb 13                	jmp    33fa <_ZN4ours12for_each_cpuIZNS_8CpuLocal4initERKNS_7CpuMaskEE3$_0Qsr4ustl6traitsE9InvocableIT_jEEEvS4_OS6_+0x5a>
                ustl::function::invoke(functor, CpuNum(i));
    33e7:	48 8b 7d f0          	mov    -0x10(%rbp),%rdi
    33eb:	8b 45 ec             	mov    -0x14(%rbp),%eax
    33ee:	89 45 e8             	mov    %eax,-0x18(%rbp)
    33f1:	48 8d 75 e8          	lea    -0x18(%rbp),%rsi
    33f5:	e8 16 00 00 00       	call   3410 <_ZNSt3__16invokeB8nn210000IRZN4ours8CpuLocal4initERKNS1_7CpuMaskEE3$_0JjEEENS_13invoke_resultIT_JDpT0_EE4typeEOS9_DpOSA_>
            }
        }
    33fa:	eb 00                	jmp    33fc <_ZN4ours12for_each_cpuIZNS_8CpuLocal4initERKNS_7CpuMaskEE3$_0Qsr4ustl6traitsE9InvocableIT_jEEEvS4_OS6_+0x5c>
        for (auto i = 0; i < cpu_mask.size(); ++i) {
    33fc:	8b 45 ec             	mov    -0x14(%rbp),%eax
    33ff:	83 c0 01             	add    $0x1,%eax
    3402:	89 45 ec             	mov    %eax,-0x14(%rbp)
    3405:	eb b0                	jmp    33b7 <_ZN4ours12for_each_cpuIZNS_8CpuLocal4initERKNS_7CpuMaskEE3$_0Qsr4ustl6traitsE9InvocableIT_jEEEvS4_OS6_+0x17>
    }
    3407:	48 83 c4 20          	add    $0x20,%rsp
    340b:	5d                   	pop    %rbp
    340c:	c3                   	ret
    340d:	0f 1f 00             	nopl   (%rax)

0000000000003410 <_ZNSt3__16invokeB8nn210000IRZN4ours8CpuLocal4initERKNS1_7CpuMaskEE3$_0JjEEENS_13invoke_resultIT_JDpT0_EE4typeEOS9_DpOSA_>:

#if _LIBCPP_STD_VER >= 17

template <class _Fn, class... _Args>
_LIBCPP_HIDE_FROM_ABI _LIBCPP_CONSTEXPR_SINCE_CXX20 invoke_result_t<_Fn, _Args...>
invoke(_Fn&& __f, _Args&&... __args) noexcept(is_nothrow_invocable_v<_Fn, _Args...>) {
    3410:	55                   	push   %rbp
    3411:	48 89 e5             	mov    %rsp,%rbp
    3414:	48 83 ec 20          	sub    $0x20,%rsp
    3418:	48 89 7d f8          	mov    %rdi,-0x8(%rbp)
    341c:	48 89 75 f0          	mov    %rsi,-0x10(%rbp)
  return std::__invoke(std::forward<_Fn>(__f), std::forward<_Args>(__args)...);
    3420:	48 8b 7d f8          	mov    -0x8(%rbp),%rdi
    3424:	e8 57 00 00 00       	call   3480 <_ZNSt3__17forwardB8nn210000IRZN4ours8CpuLocal4initERKNS1_7CpuMaskEE3$_0EEOT_Ru20__remove_reference_tIS8_E>
    3429:	48 89 45 e8          	mov    %rax,-0x18(%rbp)
    342d:	48 8b 7d f0          	mov    -0x10(%rbp),%rdi
    3431:	e8 9a 04 00 00       	call   38d0 <_ZNSt3__17forwardB8nn210000IjEEOT_Ru20__remove_reference_tIS1_E>
    3436:	48 8b 7d e8          	mov    -0x18(%rbp),%rdi
    343a:	48 89 c6             	mov    %rax,%rsi
    343d:	e8 0e 00 00 00       	call   3450 <_ZNSt3__18__invokeB8nn210000IRZN4ours8CpuLocal4initERKNS1_7CpuMaskEE3$_0JjEEEDTclclsr3stdE7declvalIT_EEspclsr3stdE7declvalIT0_EEEEOS8_DpOS9_>
    3442:	48 83 c4 20          	add    $0x20,%rsp
    3446:	5d                   	pop    %rbp
    3447:	c3                   	ret
    3448:	0f 1f 84 00 00 00 00 	nopl   0x0(%rax,%rax,1)
    344f:	00 

0000000000003450 <_ZNSt3__18__invokeB8nn210000IRZN4ours8CpuLocal4initERKNS1_7CpuMaskEE3$_0JjEEEDTclclsr3stdE7declvalIT_EEspclsr3stdE7declvalIT0_EEEEOS8_DpOS9_>:
template <class _Fp, class... _Args>
inline _LIBCPP_HIDE_FROM_ABI _LIBCPP_CONSTEXPR
decltype(std::declval<_Fp>()(std::declval<_Args>()...))
__invoke(_Fp&& __f, _Args&&... __args)
    _NOEXCEPT_(noexcept(static_cast<_Fp&&>(__f)(static_cast<_Args&&>(__args)...)))
               { return static_cast<_Fp&&>(__f)(static_cast<_Args&&>(__args)...); }
    3450:	55                   	push   %rbp
    3451:	48 89 e5             	mov    %rsp,%rbp
    3454:	48 83 ec 10          	sub    $0x10,%rsp
    3458:	48 89 7d f8          	mov    %rdi,-0x8(%rbp)
    345c:	48 89 75 f0          	mov    %rsi,-0x10(%rbp)
    3460:	48 8b 7d f8          	mov    -0x8(%rbp),%rdi
    3464:	48 8b 45 f0          	mov    -0x10(%rbp),%rax
    3468:	8b 30                	mov    (%rax),%esi
    346a:	e8 21 00 00 00       	call   3490 <_ZZN4ours8CpuLocal4initERKNS_7CpuMaskEENK3$_0clEj>
    346f:	48 83 c4 10          	add    $0x10,%rsp
    3473:	5d                   	pop    %rbp
    3474:	c3                   	ret
    3475:	66 66 2e 0f 1f 84 00 	data16 cs nopw 0x0(%rax,%rax,1)
    347c:	00 00 00 00 

0000000000003480 <_ZNSt3__17forwardB8nn210000IRZN4ours8CpuLocal4initERKNS1_7CpuMaskEE3$_0EEOT_Ru20__remove_reference_tIS8_E>:

_LIBCPP_BEGIN_NAMESPACE_STD

template <class _Tp>
[[__nodiscard__]] inline _LIBCPP_HIDE_FROM_ABI _LIBCPP_CONSTEXPR _Tp&&
forward(_LIBCPP_LIFETIMEBOUND __libcpp_remove_reference_t<_Tp>& __t) _NOEXCEPT {
    3480:	55                   	push   %rbp
    3481:	48 89 e5             	mov    %rsp,%rbp
    3484:	48 89 7d f8          	mov    %rdi,-0x8(%rbp)
  return static_cast<_Tp&&>(__t);
    3488:	48 8b 45 f8          	mov    -0x8(%rbp),%rax
    348c:	5d                   	pop    %rbp
    348d:	c3                   	ret
    348e:	66 90                	xchg   %ax,%ax

0000000000003490 <_ZZN4ours8CpuLocal4initERKNS_7CpuMaskEENK3$_0clEj>:
        return Status::Ok;
    }

    auto CpuLocal::init(CpuMask const &cpus) -> Status {
        mem::NodeMask groups;
        for_each_cpu(cpus, [] (CpuNum cpunum) {
    3490:	55                   	push   %rbp
    3491:	48 89 e5             	mov    %rsp,%rbp
    3494:	48 83 ec 20          	sub    $0x20,%rsp
    3498:	48 89 7d f8          	mov    %rdi,-0x8(%rbp)
    349c:	89 75 f4             	mov    %esi,-0xc(%rbp)
            auto const status = init_cpu_local_area_for(cpunum);
    349f:	8b 7d f4             	mov    -0xc(%rbp),%edi
    34a2:	e8 39 00 00 00       	call   34e0 <_ZN4oursL23init_cpu_local_area_forEj>
    34a7:	89 45 f0             	mov    %eax,-0x10(%rbp)
            DEBUG_ASSERT(Status::Ok == status, "");
    34aa:	31 c0                	xor    %eax,%eax
    34ac:	3b 45 f0             	cmp    -0x10(%rbp),%eax
    34af:	74 1d                	je     34ce <_ZZN4ours8CpuLocal4initERKNS_7CpuMaskEENK3$_0clEj+0x3e>
    34b1:	48 8d 35 93 bc 02 00 	lea    0x2bc93(%rip),%rsi        # 2f14b <.L.str>
    34b8:	48 8d 7d e0          	lea    -0x20(%rbp),%rdi
    34bc:	e8 bf fd ff ff       	call   3280 <_ZNSt3__117basic_string_viewIcNS_11char_traitsIcEEEC2B8nn210000EPKc>
    34c1:	48 8b 7d e0          	mov    -0x20(%rbp),%rdi
    34c5:	48 8b 75 e8          	mov    -0x18(%rbp),%rsi
    34c9:	e8 62 fd ff ff       	call   3230 <_ZN4ours5panicIJEEEvNSt3__117basic_string_viewIcNS1_11char_traitsIcEEEEDpOT_>
        });
    34ce:	48 83 c4 20          	add    $0x20,%rsp
    34d2:	5d                   	pop    %rbp
    34d3:	c3                   	ret
    34d4:	66 66 66 2e 0f 1f 84 	data16 data16 cs nopw 0x0(%rax,%rax,1)
    34db:	00 00 00 00 00 

00000000000034e0 <_ZN4oursL23init_cpu_local_area_forEj>:
    static auto init_cpu_local_area_for(CpuNum cpunum) -> Status {
    34e0:	55                   	push   %rbp
    34e1:	48 89 e5             	mov    %rsp,%rbp
    34e4:	48 83 ec 50          	sub    $0x50,%rsp
    34e8:	89 7d e8             	mov    %edi,-0x18(%rbp)
        auto const total_size = static_cpu_local_area_size() + kMaxCpuDynamicAreaSizePerCpu;
    34eb:	48 8d 0d 8e 03 03 00 	lea    0x3038e(%rip),%rcx        # 33880 <_ZN4ours8CpuLocal20s_current_cpu_offsetE>
    34f2:	48 8d 05 f7 03 03 00 	lea    0x303f7(%rip),%rax        # 338f0 <_ZN4ours3memL15ZONE_LOWEST_PFNE>
    34f9:	48 29 c8             	sub    %rcx,%rax
    34fc:	48 05 00 40 00 00    	add    $0x4000,%rax
    3502:	48 89 45 e0          	mov    %rax,-0x20(%rbp)
        auto const nr_frames = ustl::mem::align_up(total_size, PAGE_SIZE);
    3506:	48 8b 45 e0          	mov    -0x20(%rbp),%rax
    350a:	48 89 45 f8          	mov    %rax,-0x8(%rbp)
    350e:	48 c7 45 f0 00 10 00 	movq   $0x1000,-0x10(%rbp)
    3515:	00 
    auto align_down(usize n, usize a) USTL_NOEXCEPT -> usize 
    { return n & ~(a - 1); }

    USTL_FORCEINLINE USTL_CONSTEXPR 
    auto align_up(usize n, usize a) USTL_NOEXCEPT -> usize
    { return (n + a - 1) & ~(a - 1); }
    3516:	48 8b 45 f8          	mov    -0x8(%rbp),%rax
    351a:	48 03 45 f0          	add    -0x10(%rbp),%rax
    351e:	48 83 e8 01          	sub    $0x1,%rax
    3522:	48 8b 4d f0          	mov    -0x10(%rbp),%rcx
    3526:	48 83 e9 01          	sub    $0x1,%rcx
    352a:	48 83 f1 ff          	xor    $0xffffffffffffffff,%rcx
    352e:	48 21 c8             	and    %rcx,%rax
    3531:	48 89 45 d8          	mov    %rax,-0x28(%rbp)
    3535:	48 8d 7d c0          	lea    -0x40(%rbp),%rdi
        mem::FrameList<> frame_list;
    3539:	e8 a2 03 00 00       	call   38e0 <_ZN4ustl11collections9intrusive4ListIN4ours3mem7PmFrameEJN5boost9intrusive11member_hookIS5_NS7_16list_member_hookIJEEEXadL_ZNS5_13managed_hook_EEEEEEEC2Ev>
        auto status = mem::alloc_frames(mem::GAF_KERNEL, &frame_list, nr_frames);
    353e:	48 8b 55 d8          	mov    -0x28(%rbp),%rdx
    3542:	bf 48 00 00 00       	mov    $0x48,%edi
    3547:	48 8d 75 c0          	lea    -0x40(%rbp),%rsi
    354b:	e8 40 8e 00 00       	call   c390 <_ZN4ours3mem12alloc_framesENS0_5gafns3GafEPN4ustl11collections9intrusive4ListINS0_7PmFrameEJN5boost9intrusive11member_hookIS7_NS9_16list_member_hookIJEEEXadL_ZNS7_13managed_hook_EEEEEEEEm>
    3550:	89 45 bc             	mov    %eax,-0x44(%rbp)
        if (Status::Ok != status) {
    3553:	31 c0                	xor    %eax,%eax
    3555:	3b 45 bc             	cmp    -0x44(%rbp),%eax
    3558:	74 0f                	je     3569 <_ZN4oursL23init_cpu_local_area_forEj+0x89>
            return status;
    355a:	8b 45 bc             	mov    -0x44(%rbp),%eax
    355d:	89 45 ec             	mov    %eax,-0x14(%rbp)
    3560:	c7 45 b8 01 00 00 00 	movl   $0x1,-0x48(%rbp)
    3567:	eb 0e                	jmp    3577 <_ZN4oursL23init_cpu_local_area_forEj+0x97>
        return Status::Ok;
    3569:	c7 45 ec 00 00 00 00 	movl   $0x0,-0x14(%rbp)
    3570:	c7 45 b8 01 00 00 00 	movl   $0x1,-0x48(%rbp)
    3577:	48 8d 7d c0          	lea    -0x40(%rbp),%rdi
    }
    357b:	e8 90 03 00 00       	call   3910 <_ZN4ustl11collections9intrusive4ListIN4ours3mem7PmFrameEJN5boost9intrusive11member_hookIS5_NS7_16list_member_hookIJEEEXadL_ZNS5_13managed_hook_EEEEEEED2Ev>
    3580:	8b 45 ec             	mov    -0x14(%rbp),%eax
    3583:	48 83 c4 50          	add    $0x50,%rsp
    3587:	5d                   	pop    %rbp
    3588:	c3                   	ret
    3589:	0f 1f 80 00 00 00 00 	nopl   0x0(%rax)

0000000000003590 <_ZNSt3__14fillB8nn210000IPliEEvT_S2_RKT0_>:
  std::fill_n(__first, __last - __first, __value);
}

template <class _ForwardIterator, class _Tp>
inline _LIBCPP_HIDE_FROM_ABI _LIBCPP_CONSTEXPR_SINCE_CXX20 void
fill(_ForwardIterator __first, _ForwardIterator __last, const _Tp& __value) {
    3590:	55                   	push   %rbp
    3591:	48 89 e5             	mov    %rsp,%rbp
    3594:	48 83 ec 20          	sub    $0x20,%rsp
    3598:	48 89 7d f8          	mov    %rdi,-0x8(%rbp)
    359c:	48 89 75 f0          	mov    %rsi,-0x10(%rbp)
    35a0:	48 89 55 e8          	mov    %rdx,-0x18(%rbp)
  std::__fill(__first, __last, __value, typename iterator_traits<_ForwardIterator>::iterator_category());
    35a4:	48 8b 7d f8          	mov    -0x8(%rbp),%rdi
    35a8:	48 8b 75 f0          	mov    -0x10(%rbp),%rsi
    35ac:	48 8b 55 e8          	mov    -0x18(%rbp),%rdx
    35b0:	e8 7b 00 00 00       	call   3630 <_ZNSt3__16__fillB8nn210000IPliEEvT_S2_RKT0_NS_26random_access_iterator_tagE>
}
    35b5:	48 83 c4 20          	add    $0x20,%rsp
    35b9:	5d                   	pop    %rbp
    35ba:	c3                   	ret
    35bb:	0f 1f 44 00 00       	nopl   0x0(%rax,%rax,1)

00000000000035c0 <_ZNSt3__15arrayIlLm32EE5beginB8nn210000Ev>:
  _LIBCPP_HIDE_FROM_ABI _LIBCPP_CONSTEXPR_SINCE_CXX17 iterator begin() _NOEXCEPT {
    35c0:	55                   	push   %rbp
    35c1:	48 89 e5             	mov    %rsp,%rbp
    35c4:	48 83 ec 10          	sub    $0x10,%rsp
    35c8:	48 89 7d f8          	mov    %rdi,-0x8(%rbp)
    35cc:	48 8b 7d f8          	mov    -0x8(%rbp),%rdi
    return iterator(data());
    35d0:	e8 3b 01 00 00       	call   3710 <_ZNSt3__15arrayIlLm32EE4dataB8nn210000Ev>
    35d5:	48 83 c4 10          	add    $0x10,%rsp
    35d9:	5d                   	pop    %rbp
    35da:	c3                   	ret
    35db:	0f 1f 44 00 00       	nopl   0x0(%rax,%rax,1)

00000000000035e0 <_ZNSt3__15arrayIlLm32EE3endB8nn210000Ev>:
  _LIBCPP_HIDE_FROM_ABI _LIBCPP_CONSTEXPR_SINCE_CXX17 iterator end() _NOEXCEPT {
    35e0:	55                   	push   %rbp
    35e1:	48 89 e5             	mov    %rsp,%rbp
    35e4:	48 83 ec 10          	sub    $0x10,%rsp
    35e8:	48 89 7d f8          	mov    %rdi,-0x8(%rbp)
    35ec:	48 8b 7d f8          	mov    -0x8(%rbp),%rdi
    return iterator(data() + _Size);
    35f0:	e8 1b 01 00 00       	call   3710 <_ZNSt3__15arrayIlLm32EE4dataB8nn210000Ev>
    35f5:	48 05 00 01 00 00    	add    $0x100,%rax
    35fb:	48 83 c4 10          	add    $0x10,%rsp
    35ff:	5d                   	pop    %rbp
    3600:	c3                   	ret
    3601:	66 2e 0f 1f 84 00 00 	cs nopw 0x0(%rax,%rax,1)
    3608:	00 00 00 
    360b:	0f 1f 44 00 00       	nopl   0x0(%rax,%rax,1)

0000000000003610 <_ZN4ours3mem8NodeMaskC2Ev>:
#include <ustl/bitset.hpp>
#include <ustl/function/invoke.hpp>
#include <ustl/traits/is_invocable.hpp>

namespace ours::mem {
    struct NodeMask
    3610:	55                   	push   %rbp
    3611:	48 89 e5             	mov    %rsp,%rbp
    3614:	48 83 ec 10          	sub    $0x10,%rsp
    3618:	48 89 7d f8          	mov    %rdi,-0x8(%rbp)
    361c:	48 8b 7d f8          	mov    -0x8(%rbp),%rdi
    3620:	e8 fb 00 00 00       	call   3720 <_ZNSt3__16bitsetILm32EEC2B8nn210000Ev>
    3625:	48 83 c4 10          	add    $0x10,%rsp
    3629:	5d                   	pop    %rbp
    362a:	c3                   	ret
    362b:	0f 1f 44 00 00       	nopl   0x0(%rax,%rax,1)

0000000000003630 <_ZNSt3__16__fillB8nn210000IPliEEvT_S2_RKT0_NS_26random_access_iterator_tagE>:
__fill(_RandomAccessIterator __first, _RandomAccessIterator __last, const _Tp& __value, random_access_iterator_tag) {
    3630:	55                   	push   %rbp
    3631:	48 89 e5             	mov    %rsp,%rbp
    3634:	48 83 ec 20          	sub    $0x20,%rsp
    3638:	48 89 7d f0          	mov    %rdi,-0x10(%rbp)
    363c:	48 89 75 e8          	mov    %rsi,-0x18(%rbp)
    3640:	48 89 55 e0          	mov    %rdx,-0x20(%rbp)
  std::fill_n(__first, __last - __first, __value);
    3644:	48 8b 7d f0          	mov    -0x10(%rbp),%rdi
    3648:	48 8b 75 e8          	mov    -0x18(%rbp),%rsi
    364c:	48 8b 45 f0          	mov    -0x10(%rbp),%rax
    3650:	48 29 c6             	sub    %rax,%rsi
    3653:	48 c1 fe 03          	sar    $0x3,%rsi
    3657:	48 8b 55 e0          	mov    -0x20(%rbp),%rdx
    365b:	e8 10 00 00 00       	call   3670 <_ZNSt3__16fill_nB8nn210000IPlliEET_S2_T0_RKT1_>
}
    3660:	48 83 c4 20          	add    $0x20,%rsp
    3664:	5d                   	pop    %rbp
    3665:	c3                   	ret
    3666:	66 2e 0f 1f 84 00 00 	cs nopw 0x0(%rax,%rax,1)
    366d:	00 00 00 

0000000000003670 <_ZNSt3__16fill_nB8nn210000IPlliEET_S2_T0_RKT1_>:
  return __first;
}

template <class _OutputIterator, class _Size, class _Tp>
inline _LIBCPP_HIDE_FROM_ABI _LIBCPP_CONSTEXPR_SINCE_CXX20 _OutputIterator
fill_n(_OutputIterator __first, _Size __n, const _Tp& __value) {
    3670:	55                   	push   %rbp
    3671:	48 89 e5             	mov    %rsp,%rbp
    3674:	48 83 ec 20          	sub    $0x20,%rsp
    3678:	48 89 7d f8          	mov    %rdi,-0x8(%rbp)
    367c:	48 89 75 f0          	mov    %rsi,-0x10(%rbp)
    3680:	48 89 55 e8          	mov    %rdx,-0x18(%rbp)
  return std::__fill_n(__first, std::__convert_to_integral(__n), __value);
    3684:	48 8b 45 f8          	mov    -0x8(%rbp),%rax
    3688:	48 89 45 e0          	mov    %rax,-0x20(%rbp)
    368c:	48 8b 7d f0          	mov    -0x10(%rbp),%rdi
    3690:	e8 6b 00 00 00       	call   3700 <_ZNSt3__121__convert_to_integralB8nn210000El>
    3695:	48 8b 7d e0          	mov    -0x20(%rbp),%rdi
    3699:	48 89 c6             	mov    %rax,%rsi
    369c:	48 8b 55 e8          	mov    -0x18(%rbp),%rdx
    36a0:	e8 0b 00 00 00       	call   36b0 <_ZNSt3__18__fill_nB8nn210000IPlliEET_S2_T0_RKT1_>
    36a5:	48 83 c4 20          	add    $0x20,%rsp
    36a9:	5d                   	pop    %rbp
    36aa:	c3                   	ret
    36ab:	0f 1f 44 00 00       	nopl   0x0(%rax,%rax,1)

00000000000036b0 <_ZNSt3__18__fill_nB8nn210000IPlliEET_S2_T0_RKT1_>:
__fill_n(_OutputIterator __first, _Size __n, const _Tp& __value) {
    36b0:	55                   	push   %rbp
    36b1:	48 89 e5             	mov    %rsp,%rbp
    36b4:	48 89 7d f8          	mov    %rdi,-0x8(%rbp)
    36b8:	48 89 75 f0          	mov    %rsi,-0x10(%rbp)
    36bc:	48 89 55 e8          	mov    %rdx,-0x18(%rbp)
  for (; __n > 0; ++__first, (void)--__n)
    36c0:	48 83 7d f0 00       	cmpq   $0x0,-0x10(%rbp)
    36c5:	7e 28                	jle    36ef <_ZNSt3__18__fill_nB8nn210000IPlliEET_S2_T0_RKT1_+0x3f>
    *__first = __value;
    36c7:	48 8b 45 e8          	mov    -0x18(%rbp),%rax
    36cb:	48 63 08             	movslq (%rax),%rcx
    36ce:	48 8b 45 f8          	mov    -0x8(%rbp),%rax
    36d2:	48 89 08             	mov    %rcx,(%rax)
  for (; __n > 0; ++__first, (void)--__n)
    36d5:	48 8b 45 f8          	mov    -0x8(%rbp),%rax
    36d9:	48 83 c0 08          	add    $0x8,%rax
    36dd:	48 89 45 f8          	mov    %rax,-0x8(%rbp)
    36e1:	48 8b 45 f0          	mov    -0x10(%rbp),%rax
    36e5:	48 83 c0 ff          	add    $0xffffffffffffffff,%rax
    36e9:	48 89 45 f0          	mov    %rax,-0x10(%rbp)
    36ed:	eb d1                	jmp    36c0 <_ZNSt3__18__fill_nB8nn210000IPlliEET_S2_T0_RKT1_+0x10>
  return __first;
    36ef:	48 8b 45 f8          	mov    -0x8(%rbp),%rax
    36f3:	5d                   	pop    %rbp
    36f4:	c3                   	ret
    36f5:	66 2e 0f 1f 84 00 00 	cs nopw 0x0(%rax,%rax,1)
    36fc:	00 00 00 
    36ff:	90                   	nop

0000000000003700 <_ZNSt3__121__convert_to_integralB8nn210000El>:

inline _LIBCPP_HIDE_FROM_ABI _LIBCPP_CONSTEXPR int __convert_to_integral(int __val) { return __val; }

inline _LIBCPP_HIDE_FROM_ABI _LIBCPP_CONSTEXPR unsigned __convert_to_integral(unsigned __val) { return __val; }

inline _LIBCPP_HIDE_FROM_ABI _LIBCPP_CONSTEXPR long __convert_to_integral(long __val) { return __val; }
    3700:	55                   	push   %rbp
    3701:	48 89 e5             	mov    %rsp,%rbp
    3704:	48 89 7d f8          	mov    %rdi,-0x8(%rbp)
    3708:	48 8b 45 f8          	mov    -0x8(%rbp),%rax
    370c:	5d                   	pop    %rbp
    370d:	c3                   	ret
    370e:	66 90                	xchg   %ax,%ax

0000000000003710 <_ZNSt3__15arrayIlLm32EE4dataB8nn210000Ev>:
  _LIBCPP_HIDE_FROM_ABI _LIBCPP_CONSTEXPR_SINCE_CXX17 reference back() _NOEXCEPT { return (*this)[_Size - 1]; }
  _LIBCPP_HIDE_FROM_ABI _LIBCPP_CONSTEXPR_SINCE_CXX14 const_reference back() const _NOEXCEPT {
    return (*this)[_Size - 1];
  }

  _LIBCPP_HIDE_FROM_ABI _LIBCPP_CONSTEXPR_SINCE_CXX17 value_type* data() _NOEXCEPT { return __elems_; }
    3710:	55                   	push   %rbp
    3711:	48 89 e5             	mov    %rsp,%rbp
    3714:	48 89 7d f8          	mov    %rdi,-0x8(%rbp)
    3718:	48 8b 45 f8          	mov    -0x8(%rbp),%rax
    371c:	5d                   	pop    %rbp
    371d:	c3                   	ret
    371e:	66 90                	xchg   %ax,%ax

0000000000003720 <_ZNSt3__16bitsetILm32EEC2B8nn210000Ev>:
  _LIBCPP_HIDE_FROM_ABI _LIBCPP_CONSTEXPR bitset() _NOEXCEPT {}
    3720:	55                   	push   %rbp
    3721:	48 89 e5             	mov    %rsp,%rbp
    3724:	48 83 ec 10          	sub    $0x10,%rsp
    3728:	48 89 7d f8          	mov    %rdi,-0x8(%rbp)
    372c:	48 8b 7d f8          	mov    -0x8(%rbp),%rdi
    3730:	e8 0b 00 00 00       	call   3740 <_ZNSt3__18__bitsetILm1ELm32EEC2Ev>
    3735:	48 83 c4 10          	add    $0x10,%rsp
    3739:	5d                   	pop    %rbp
    373a:	c3                   	ret
    373b:	0f 1f 44 00 00       	nopl   0x0(%rax,%rax,1)

0000000000003740 <_ZNSt3__18__bitsetILm1ELm32EEC2Ev>:
inline _LIBCPP_CONSTEXPR __bitset<1, _Size>::__bitset() _NOEXCEPT : __first_(0) {}
    3740:	55                   	push   %rbp
    3741:	48 89 e5             	mov    %rsp,%rbp
    3744:	48 89 7d f8          	mov    %rdi,-0x8(%rbp)
    3748:	48 8b 45 f8          	mov    -0x8(%rbp),%rax
    374c:	48 c7 00 00 00 00 00 	movq   $0x0,(%rax)
    3753:	5d                   	pop    %rbp
    3754:	c3                   	ret
    3755:	66 2e 0f 1f 84 00 00 	cs nopw 0x0(%rax,%rax,1)
    375c:	00 00 00 
    375f:	90                   	nop

0000000000003760 <_ZNKSt3__16bitsetILm32EE4sizeB8nn210000Ev>:
  _LIBCPP_HIDE_FROM_ABI _LIBCPP_CONSTEXPR_SINCE_CXX23 basic_string<_CharT, char_traits<_CharT>, allocator<_CharT> >
  to_string(_CharT __zero = _CharT('0'), _CharT __one = _CharT('1')) const;
  _LIBCPP_HIDE_FROM_ABI _LIBCPP_CONSTEXPR_SINCE_CXX23 basic_string<char, char_traits<char>, allocator<char> >
  to_string(char __zero = '0', char __one = '1') const;
  _LIBCPP_HIDE_FROM_ABI _LIBCPP_CONSTEXPR_SINCE_CXX23 size_t count() const _NOEXCEPT;
  _LIBCPP_HIDE_FROM_ABI _LIBCPP_CONSTEXPR size_t size() const _NOEXCEPT { return _Size; }
    3760:	55                   	push   %rbp
    3761:	48 89 e5             	mov    %rsp,%rbp
    3764:	48 89 7d f8          	mov    %rdi,-0x8(%rbp)
    3768:	b8 20 00 00 00       	mov    $0x20,%eax
    376d:	5d                   	pop    %rbp
    376e:	c3                   	ret
    376f:	90                   	nop

0000000000003770 <_ZNKSt3__16bitsetILm32EE4testB8nn210000Em>:
}

#  endif

template <size_t _Size>
_LIBCPP_HIDE_FROM_ABI _LIBCPP_CONSTEXPR_SINCE_CXX23 bool bitset<_Size>::test(size_t __pos) const {
    3770:	55                   	push   %rbp
    3771:	48 89 e5             	mov    %rsp,%rbp
    3774:	48 83 ec 30          	sub    $0x30,%rsp
    3778:	48 89 7d f8          	mov    %rdi,-0x8(%rbp)
    377c:	48 89 75 f0          	mov    %rsi,-0x10(%rbp)
    3780:	48 8b 45 f8          	mov    -0x8(%rbp),%rax
    3784:	48 89 45 d8          	mov    %rax,-0x28(%rbp)
  if (__pos >= _Size)
    3788:	48 83 7d f0 20       	cmpq   $0x20,-0x10(%rbp)
    378d:	72 0c                	jb     379b <_ZNKSt3__16bitsetILm32EE4testB8nn210000Em+0x2b>
    std::__throw_out_of_range("bitset test argument out of range");
    378f:	48 8d 3d 86 b6 02 00 	lea    0x2b686(%rip),%rdi        # 2ee1c <.L.str.1>
    3796:	e8 35 00 00 00       	call   37d0 <_ZNSt3__120__throw_out_of_rangeB8nn210000EPKc>
    379b:	48 8b 7d d8          	mov    -0x28(%rbp),%rdi

  return (*this)[__pos];
    379f:	48 8b 75 f0          	mov    -0x10(%rbp),%rsi
    37a3:	e8 48 00 00 00       	call   37f0 <_ZNKSt3__16bitsetILm32EEixB8nn210000Em>
    37a8:	48 89 45 e0          	mov    %rax,-0x20(%rbp)
    37ac:	48 89 55 e8          	mov    %rdx,-0x18(%rbp)
    37b0:	48 8d 7d e0          	lea    -0x20(%rbp),%rdi
    37b4:	e8 77 00 00 00       	call   3830 <_ZNKSt3__121__bit_const_referenceINS_8__bitsetILm1ELm32EEEEcvbB8nn210000Ev>
    37b9:	24 01                	and    $0x1,%al
    37bb:	48 83 c4 30          	add    $0x30,%rsp
    37bf:	5d                   	pop    %rbp
    37c0:	c3                   	ret
    37c1:	66 2e 0f 1f 84 00 00 	cs nopw 0x0(%rax,%rax,1)
    37c8:	00 00 00 
    37cb:	0f 1f 44 00 00       	nopl   0x0(%rax,%rax,1)

00000000000037d0 <_ZNSt3__120__throw_out_of_rangeB8nn210000EPKc>:
#  else
  _LIBCPP_VERBOSE_ABORT("length_error was thrown in -fno-exceptions mode with message \"%s\"", __msg);
#  endif
}

[[__noreturn__]] inline _LIBCPP_HIDE_FROM_ABI void __throw_out_of_range(const char* __msg) {
    37d0:	55                   	push   %rbp
    37d1:	48 89 e5             	mov    %rsp,%rbp
    37d4:	48 83 ec 10          	sub    $0x10,%rsp
    37d8:	48 89 7d f8          	mov    %rdi,-0x8(%rbp)
#  if _LIBCPP_HAS_EXCEPTIONS
  throw out_of_range(__msg);
#  else
  _LIBCPP_VERBOSE_ABORT("out_of_range was thrown in -fno-exceptions mode with message \"%s\"", __msg);
    37dc:	48 8b 75 f8          	mov    -0x8(%rbp),%rsi
    37e0:	48 8d 3d 57 b6 02 00 	lea    0x2b657(%rip),%rdi        # 2ee3e <.L.str.2>
    37e7:	31 c0                	xor    %eax,%eax
    37e9:	e8 e2 43 01 00       	call   17bd0 <_ZNSt3__122__libcpp_verbose_abortEPKcz>
    37ee:	66 90                	xchg   %ax,%ax

00000000000037f0 <_ZNKSt3__16bitsetILm32EEixB8nn210000Em>:
  _LIBCPP_HIDE_FROM_ABI _LIBCPP_CONSTEXPR __const_reference operator[](size_t __p) const {
    37f0:	55                   	push   %rbp
    37f1:	48 89 e5             	mov    %rsp,%rbp
    37f4:	48 83 ec 20          	sub    $0x20,%rsp
    37f8:	48 89 7d e8          	mov    %rdi,-0x18(%rbp)
    37fc:	48 89 75 e0          	mov    %rsi,-0x20(%rbp)
    3800:	48 8b 7d e8          	mov    -0x18(%rbp),%rdi
    return __base::__make_ref(__p);
    3804:	48 8b 75 e0          	mov    -0x20(%rbp),%rsi
    3808:	e8 53 00 00 00       	call   3860 <_ZNKSt3__18__bitsetILm1ELm32EE10__make_refB8nn210000Em>
    380d:	48 89 45 f0          	mov    %rax,-0x10(%rbp)
    3811:	48 89 55 f8          	mov    %rdx,-0x8(%rbp)
    3815:	48 8b 45 f0          	mov    -0x10(%rbp),%rax
    3819:	48 8b 55 f8          	mov    -0x8(%rbp),%rdx
    381d:	48 83 c4 20          	add    $0x20,%rsp
    3821:	5d                   	pop    %rbp
    3822:	c3                   	ret
    3823:	66 2e 0f 1f 84 00 00 	cs nopw 0x0(%rax,%rax,1)
    382a:	00 00 00 
    382d:	0f 1f 00             	nopl   (%rax)

0000000000003830 <_ZNKSt3__121__bit_const_referenceINS_8__bitsetILm1ELm32EEEEcvbB8nn210000Ev>:

  _LIBCPP_HIDE_FROM_ABI _LIBCPP_CONSTEXPR_SINCE_CXX20 __bit_const_reference(const __bit_reference<_Cp>& __x) _NOEXCEPT
      : __seg_(__x.__seg_),
        __mask_(__x.__mask_) {}

  _LIBCPP_HIDE_FROM_ABI _LIBCPP_CONSTEXPR operator bool() const _NOEXCEPT {
    3830:	55                   	push   %rbp
    3831:	48 89 e5             	mov    %rsp,%rbp
    3834:	48 89 7d f8          	mov    %rdi,-0x8(%rbp)
    3838:	48 8b 4d f8          	mov    -0x8(%rbp),%rcx
    return static_cast<bool>(*__seg_ & __mask_);
    383c:	48 8b 01             	mov    (%rcx),%rax
    383f:	48 8b 00             	mov    (%rax),%rax
    3842:	48 23 41 08          	and    0x8(%rcx),%rax
    3846:	48 83 f8 00          	cmp    $0x0,%rax
    384a:	0f 95 c0             	setne  %al
    384d:	24 01                	and    $0x1,%al
    384f:	5d                   	pop    %rbp
    3850:	c3                   	ret
    3851:	66 2e 0f 1f 84 00 00 	cs nopw 0x0(%rax,%rax,1)
    3858:	00 00 00 
    385b:	0f 1f 44 00 00       	nopl   0x0(%rax,%rax,1)

0000000000003860 <_ZNKSt3__18__bitsetILm1ELm32EE10__make_refB8nn210000Em>:
  _LIBCPP_HIDE_FROM_ABI _LIBCPP_CONSTEXPR __const_reference __make_ref(size_t __pos) const _NOEXCEPT {
    3860:	55                   	push   %rbp
    3861:	48 89 e5             	mov    %rsp,%rbp
    3864:	48 83 ec 20          	sub    $0x20,%rsp
    3868:	48 89 7d e8          	mov    %rdi,-0x18(%rbp)
    386c:	48 89 75 e0          	mov    %rsi,-0x20(%rbp)
    3870:	48 8b 75 e8          	mov    -0x18(%rbp),%rsi
    return __const_reference(&__first_, __storage_type(1) << __pos);
    3874:	8a 4d e0             	mov    -0x20(%rbp),%cl
    3877:	ba 01 00 00 00       	mov    $0x1,%edx
    387c:	48 d3 e2             	shl    %cl,%rdx
    387f:	48 8d 7d f0          	lea    -0x10(%rbp),%rdi
    3883:	e8 18 00 00 00       	call   38a0 <_ZNSt3__121__bit_const_referenceINS_8__bitsetILm1ELm32EEEEC2B8nn210000EPKmm>
    3888:	48 8b 45 f0          	mov    -0x10(%rbp),%rax
    388c:	48 8b 55 f8          	mov    -0x8(%rbp),%rdx
    3890:	48 83 c4 20          	add    $0x20,%rsp
    3894:	5d                   	pop    %rbp
    3895:	c3                   	ret
    3896:	66 2e 0f 1f 84 00 00 	cs nopw 0x0(%rax,%rax,1)
    389d:	00 00 00 

00000000000038a0 <_ZNSt3__121__bit_const_referenceINS_8__bitsetILm1ELm32EEEEC2B8nn210000EPKmm>:

private:
  _LIBCPP_HIDE_FROM_ABI
  _LIBCPP_CONSTEXPR explicit __bit_const_reference(__storage_pointer __s, __storage_type __m) _NOEXCEPT
      : __seg_(__s),
        __mask_(__m) {}
    38a0:	55                   	push   %rbp
    38a1:	48 89 e5             	mov    %rsp,%rbp
    38a4:	48 89 7d f8          	mov    %rdi,-0x8(%rbp)
    38a8:	48 89 75 f0          	mov    %rsi,-0x10(%rbp)
    38ac:	48 89 55 e8          	mov    %rdx,-0x18(%rbp)
    38b0:	48 8b 45 f8          	mov    -0x8(%rbp),%rax
      : __seg_(__s),
    38b4:	48 8b 4d f0          	mov    -0x10(%rbp),%rcx
    38b8:	48 89 08             	mov    %rcx,(%rax)
        __mask_(__m) {}
    38bb:	48 8b 4d e8          	mov    -0x18(%rbp),%rcx
    38bf:	48 89 48 08          	mov    %rcx,0x8(%rax)
    38c3:	5d                   	pop    %rbp
    38c4:	c3                   	ret
    38c5:	66 2e 0f 1f 84 00 00 	cs nopw 0x0(%rax,%rax,1)
    38cc:	00 00 00 
    38cf:	90                   	nop

00000000000038d0 <_ZNSt3__17forwardB8nn210000IjEEOT_Ru20__remove_reference_tIS1_E>:
forward(_LIBCPP_LIFETIMEBOUND __libcpp_remove_reference_t<_Tp>& __t) _NOEXCEPT {
    38d0:	55                   	push   %rbp
    38d1:	48 89 e5             	mov    %rsp,%rbp
    38d4:	48 89 7d f8          	mov    %rdi,-0x8(%rbp)
  return static_cast<_Tp&&>(__t);
    38d8:	48 8b 45 f8          	mov    -0x8(%rbp),%rax
    38dc:	5d                   	pop    %rbp
    38dd:	c3                   	ret
    38de:	66 90                	xchg   %ax,%ax

00000000000038e0 <_ZN4ustl11collections9intrusive4ListIN4ours3mem7PmFrameEJN5boost9intrusive11member_hookIS5_NS7_16list_member_hookIJEEEXadL_ZNS5_13managed_hook_EEEEEEEC2Ev>:

namespace ustl::collections::intrusive {
    using namespace boost::intrusive;

    template<class T, class ...Options>
    class List
    38e0:	55                   	push   %rbp
    38e1:	48 89 e5             	mov    %rsp,%rbp
    38e4:	48 83 ec 10          	sub    $0x10,%rsp
    38e8:	48 89 7d f0          	mov    %rdi,-0x10(%rbp)
    38ec:	48 8b 45 f0          	mov    -0x10(%rbp),%rax
    38f0:	48 89 45 f8          	mov    %rax,-0x8(%rbp)
    38f4:	48 8b 7d f8          	mov    -0x8(%rbp),%rdi
   typedef typename Base::value_traits          value_traits;
   typedef typename Base::iterator              iterator;
   typedef typename Base::const_iterator        const_iterator;

   BOOST_INTRUSIVE_FORCEINLINE list()
      :  Base()
    38f8:	e8 33 00 00 00       	call   3930 <_ZN5boost9intrusive9list_implINS0_8mhtraitsIN4ours3mem7PmFrameENS0_16list_member_hookIJEEEXadL_ZNS5_13managed_hook_EEEEEmLb1EvEC2Ev>
    38fd:	48 83 c4 10          	add    $0x10,%rsp
    3901:	5d                   	pop    %rbp
    3902:	c3                   	ret
    3903:	66 2e 0f 1f 84 00 00 	cs nopw 0x0(%rax,%rax,1)
    390a:	00 00 00 
    390d:	0f 1f 00             	nopl   (%rax)

0000000000003910 <_ZN4ustl11collections9intrusive4ListIN4ours3mem7PmFrameEJN5boost9intrusive11member_hookIS5_NS7_16list_member_hookIJEEEXadL_ZNS5_13managed_hook_EEEEEEED2Ev>:
    3910:	55                   	push   %rbp
    3911:	48 89 e5             	mov    %rsp,%rbp
    3914:	48 83 ec 10          	sub    $0x10,%rsp
    3918:	48 89 7d f8          	mov    %rdi,-0x8(%rbp)
    391c:	48 8b 7d f8          	mov    -0x8(%rbp),%rdi
    3920:	e8 1b 01 00 00       	call   3a40 <_ZN5boost9intrusive4listIN4ours3mem7PmFrameEJNS0_11member_hookIS4_NS0_16list_member_hookIJEEEXadL_ZNS4_13managed_hook_EEEEEEED2Ev>
    3925:	48 83 c4 10          	add    $0x10,%rsp
    3929:	5d                   	pop    %rbp
    392a:	c3                   	ret
    392b:	0f 1f 44 00 00       	nopl   0x0(%rax,%rax,1)

0000000000003930 <_ZN5boost9intrusive9list_implINS0_8mhtraitsIN4ours3mem7PmFrameENS0_16list_member_hookIJEEEXadL_ZNS5_13managed_hook_EEEEEmLb1EvEC2Ev>:
   {
    3930:	55                   	push   %rbp
    3931:	48 89 e5             	mov    %rsp,%rbp
    3934:	48 83 ec 60          	sub    $0x60,%rsp
    3938:	48 89 7d b0          	mov    %rdi,-0x50(%rbp)
    393c:	48 8b 45 b0          	mov    -0x50(%rbp),%rax
    3940:	48 89 45 a0          	mov    %rax,-0x60(%rbp)
    3944:	48 89 45 c0          	mov    %rax,-0x40(%rbp)
    3948:	48 8d 45 af          	lea    -0x51(%rbp),%rax
    394c:	48 89 45 b8          	mov    %rax,-0x48(%rbp)
    3950:	48 8b 7d c0          	mov    -0x40(%rbp),%rdi
      BOOST_INTRUSIVE_FORCEINLINE explicit data_t(const value_traits &val_traits)
    3954:	e8 a7 00 00 00       	call   3a00 <_ZN5boost9intrusive9list_implINS0_8mhtraitsIN4ours3mem7PmFrameENS0_16list_member_hookIJEEEXadL_ZNS5_13managed_hook_EEEEEmLb1EvE14root_plus_sizeC2Ev>
    3959:	48 8b 45 a0          	mov    -0x60(%rbp),%rax
    395d:	48 89 45 c8          	mov    %rax,-0x38(%rbp)
    3961:	48 8b 4d c8          	mov    -0x38(%rbp),%rcx
    3965:	48 89 4d d8          	mov    %rcx,-0x28(%rbp)
    3969:	48 c7 45 d0 00 00 00 	movq   $0x0,-0x30(%rbp)
    3970:	00 
    3971:	48 8b 4d d8          	mov    -0x28(%rbp),%rcx

   BOOST_INTRUSIVE_FORCEINLINE SizeType get_size() const
   {  return size_;  }

   BOOST_INTRUSIVE_FORCEINLINE void set_size(SizeType size)
   {  size_ = size; }
    3975:	48 8b 55 d0          	mov    -0x30(%rbp),%rdx
    3979:	48 89 11             	mov    %rdx,(%rcx)
    397c:	48 89 45 e0          	mov    %rax,-0x20(%rbp)
    3980:	48 8b 45 e0          	mov    -0x20(%rbp),%rax
   { return data_.root_plus_size_.m_header.get_node(); }
    3984:	48 83 c0 08          	add    $0x8,%rax
    3988:	48 89 45 e8          	mov    %rax,-0x18(%rbp)
    398c:	48 8b 45 e8          	mov    -0x18(%rbp),%rax
    3990:	48 89 45 f0          	mov    %rax,-0x10(%rbp)
   {  typedef U* type;  };

   //! <b>Returns</b>: addressof(r)
   //!
   BOOST_INTRUSIVE_FORCEINLINE static pointer pointer_to(reference r) BOOST_NOEXCEPT
   { return boost::intrusive::detail::addressof(r); }
    3994:	48 8b 45 f0          	mov    -0x10(%rbp),%rax
    3998:	48 89 45 f8          	mov    %rax,-0x8(%rbp)
#ifdef BOOST_MOVE_HAS_BUILTIN_ADDRESSOF

template<class T>
BOOST_MOVE_FORCEINLINE T *addressof( T & v ) BOOST_NOEXCEPT
{
   return __builtin_addressof(v);
    399c:	48 8b 7d f8          	mov    -0x8(%rbp),%rdi
      node_algorithms::init_header(this->get_root_node());
    39a0:	e8 0b 00 00 00       	call   39b0 <_ZN5boost9intrusive24circular_list_algorithmsINS0_16list_node_traitsIPvEEE11init_headerEPNS0_9list_nodeIS3_EE>
   }
    39a5:	48 83 c4 60          	add    $0x60,%rsp
    39a9:	5d                   	pop    %rbp
    39aa:	c3                   	ret
    39ab:	0f 1f 44 00 00       	nopl   0x0(%rax,%rax,1)

00000000000039b0 <_ZN5boost9intrusive24circular_list_algorithmsINS0_16list_node_traitsIPvEEE11init_headerEPNS0_9list_nodeIS3_EE>:
   //!
   //! <b>Complexity</b>: Constant
   //!
   //! <b>Throws</b>: Nothing.
   static void init_header(node_ptr this_node) BOOST_NOEXCEPT
   {
    39b0:	55                   	push   %rbp
    39b1:	48 89 e5             	mov    %rsp,%rbp
    39b4:	48 89 7d d8          	mov    %rdi,-0x28(%rbp)
      NodeTraits::set_next(this_node, this_node);
    39b8:	48 8b 4d d8          	mov    -0x28(%rbp),%rcx
    39bc:	48 8b 45 d8          	mov    -0x28(%rbp),%rax
    39c0:	48 89 4d e8          	mov    %rcx,-0x18(%rbp)
    39c4:	48 89 45 e0          	mov    %rax,-0x20(%rbp)

   BOOST_INTRUSIVE_FORCEINLINE static node_ptr get_next(node_ptr n)
   {  return n->next_;  }

   BOOST_INTRUSIVE_FORCEINLINE static void set_next(node_ptr n, node_ptr next)
   {  n->next_ = next;  }
    39c8:	48 8b 4d e0          	mov    -0x20(%rbp),%rcx
    39cc:	48 8b 45 e8          	mov    -0x18(%rbp),%rax
    39d0:	48 89 08             	mov    %rcx,(%rax)
      NodeTraits::set_previous(this_node, this_node);
    39d3:	48 8b 4d d8          	mov    -0x28(%rbp),%rcx
    39d7:	48 8b 45 d8          	mov    -0x28(%rbp),%rax
    39db:	48 89 4d f8          	mov    %rcx,-0x8(%rbp)
    39df:	48 89 45 f0          	mov    %rax,-0x10(%rbp)
   {  n->prev_ = prev;  }
    39e3:	48 8b 4d f0          	mov    -0x10(%rbp),%rcx
    39e7:	48 8b 45 f8          	mov    -0x8(%rbp),%rax
    39eb:	48 89 48 08          	mov    %rcx,0x8(%rax)
   }
    39ef:	5d                   	pop    %rbp
    39f0:	c3                   	ret
    39f1:	66 2e 0f 1f 84 00 00 	cs nopw 0x0(%rax,%rax,1)
    39f8:	00 00 00 
    39fb:	0f 1f 44 00 00       	nopl   0x0(%rax,%rax,1)

0000000000003a00 <_ZN5boost9intrusive9list_implINS0_8mhtraitsIN4ours3mem7PmFrameENS0_16list_member_hookIJEEEXadL_ZNS5_13managed_hook_EEEEEmLb1EvE14root_plus_sizeC2Ev>:
   struct root_plus_size : public size_traits
    3a00:	55                   	push   %rbp
    3a01:	48 89 e5             	mov    %rsp,%rbp
    3a04:	48 83 ec 10          	sub    $0x10,%rsp
    3a08:	48 89 7d f8          	mov    %rdi,-0x8(%rbp)
    3a0c:	48 8b 7d f8          	mov    -0x8(%rbp),%rdi
    3a10:	48 83 c7 08          	add    $0x8,%rdi
    3a14:	e8 07 00 00 00       	call   3a20 <_ZN5boost9intrusive6detail21default_header_holderINS0_16list_node_traitsIPvEEEC2Ev>
    3a19:	48 83 c4 10          	add    $0x10,%rsp
    3a1d:	5d                   	pop    %rbp
    3a1e:	c3                   	ret
    3a1f:	90                   	nop

0000000000003a20 <_ZN5boost9intrusive6detail21default_header_holderINS0_16list_node_traitsIPvEEEC2Ev>:
   typedef NodeTraits node_traits;
   typedef typename node_traits::node node;
   typedef typename node_traits::node_ptr node_ptr;
   typedef typename node_traits::const_node_ptr const_node_ptr;

   default_header_holder() : node() {}
    3a20:	55                   	push   %rbp
    3a21:	48 89 e5             	mov    %rsp,%rbp
    3a24:	48 89 7d f8          	mov    %rdi,-0x8(%rbp)
    3a28:	48 8b 45 f8          	mov    -0x8(%rbp),%rax
    3a2c:	31 c9                	xor    %ecx,%ecx
    3a2e:	48 c7 40 08 00 00 00 	movq   $0x0,0x8(%rax)
    3a35:	00 
    3a36:	48 c7 00 00 00 00 00 	movq   $0x0,(%rax)
    3a3d:	5d                   	pop    %rbp
    3a3e:	c3                   	ret
    3a3f:	90                   	nop

0000000000003a40 <_ZN5boost9intrusive4listIN4ours3mem7PmFrameEJNS0_11member_hookIS4_NS0_16list_member_hookIJEEEXadL_ZNS4_13managed_hook_EEEEEEED2Ev>:
class list
    3a40:	55                   	push   %rbp
    3a41:	48 89 e5             	mov    %rsp,%rbp
    3a44:	48 83 ec 10          	sub    $0x10,%rsp
    3a48:	48 89 7d f8          	mov    %rdi,-0x8(%rbp)
    3a4c:	48 8b 7d f8          	mov    -0x8(%rbp),%rdi
    3a50:	e8 0b 00 00 00       	call   3a60 <_ZN5boost9intrusive9list_implINS0_8mhtraitsIN4ours3mem7PmFrameENS0_16list_member_hookIJEEEXadL_ZNS5_13managed_hook_EEEEEmLb1EvED2Ev>
    3a55:	48 83 c4 10          	add    $0x10,%rsp
    3a59:	5d                   	pop    %rbp
    3a5a:	c3                   	ret
    3a5b:	0f 1f 44 00 00       	nopl   0x0(%rax,%rax,1)

0000000000003a60 <_ZN5boost9intrusive9list_implINS0_8mhtraitsIN4ours3mem7PmFrameENS0_16list_member_hookIJEEEXadL_ZNS5_13managed_hook_EEEEEmLb1EvED2Ev>:
   {
    3a60:	55                   	push   %rbp
    3a61:	48 89 e5             	mov    %rsp,%rbp
    3a64:	48 83 ec 30          	sub    $0x30,%rsp
    3a68:	48 89 7d d8          	mov    %rdi,-0x28(%rbp)
    3a6c:	48 8b 7d d8          	mov    -0x28(%rbp),%rdi
    3a70:	48 89 7d d0          	mov    %rdi,-0x30(%rbp)
         this->clear();
    3a74:	e8 37 00 00 00       	call   3ab0 <_ZN5boost9intrusive9list_implINS0_8mhtraitsIN4ours3mem7PmFrameENS0_16list_member_hookIJEEEXadL_ZNS5_13managed_hook_EEEEEmLb1EvE5clearEv>
    3a79:	48 8b 45 d0          	mov    -0x30(%rbp),%rax
    3a7d:	48 89 45 e0          	mov    %rax,-0x20(%rbp)
    3a81:	48 8b 45 e0          	mov    -0x20(%rbp),%rax
   { return data_.root_plus_size_.m_header.get_node(); }
    3a85:	48 83 c0 08          	add    $0x8,%rax
    3a89:	48 89 45 e8          	mov    %rax,-0x18(%rbp)
    3a8d:	48 8b 45 e8          	mov    -0x18(%rbp),%rax
    3a91:	48 89 45 f0          	mov    %rax,-0x10(%rbp)
    3a95:	48 8b 45 f0          	mov    -0x10(%rbp),%rax
    3a99:	48 89 45 f8          	mov    %rax,-0x8(%rbp)
    3a9d:	48 8b 7d f8          	mov    -0x8(%rbp),%rdi
         node_algorithms::init(this->get_root_node());
    3aa1:	e8 2a 00 00 00       	call   3ad0 <_ZN5boost9intrusive24circular_list_algorithmsINS0_16list_node_traitsIPvEEE4initEPNS0_9list_nodeIS3_EE>
   }
    3aa6:	48 83 c4 30          	add    $0x30,%rsp
    3aaa:	5d                   	pop    %rbp
    3aab:	c3                   	ret
    3aac:	0f 1f 40 00          	nopl   0x0(%rax)

0000000000003ab0 <_ZN5boost9intrusive9list_implINS0_8mhtraitsIN4ours3mem7PmFrameENS0_16list_member_hookIJEEEXadL_ZNS5_13managed_hook_EEEEEmLb1EvE5clearEv>:
   {
    3ab0:	55                   	push   %rbp
    3ab1:	48 89 e5             	mov    %rsp,%rbp
    3ab4:	48 83 ec 10          	sub    $0x10,%rsp
    3ab8:	48 89 7d f8          	mov    %rdi,-0x8(%rbp)
    3abc:	48 8b 7d f8          	mov    -0x8(%rbp),%rdi
         this->clear_and_dispose(detail::null_disposer());
    3ac0:	e8 5b 00 00 00       	call   3b20 <_ZN5boost9intrusive9list_implINS0_8mhtraitsIN4ours3mem7PmFrameENS0_16list_member_hookIJEEEXadL_ZNS5_13managed_hook_EEEEEmLb1EvE17clear_and_disposeINS0_6detail13null_disposerEEEvT_>
   }
    3ac5:	48 83 c4 10          	add    $0x10,%rsp
    3ac9:	5d                   	pop    %rbp
    3aca:	c3                   	ret
    3acb:	0f 1f 44 00 00       	nopl   0x0(%rax,%rax,1)

0000000000003ad0 <_ZN5boost9intrusive24circular_list_algorithmsINS0_16list_node_traitsIPvEEE4initEPNS0_9list_nodeIS3_EE>:
   {
    3ad0:	55                   	push   %rbp
    3ad1:	48 89 e5             	mov    %rsp,%rbp
    3ad4:	48 89 7d d8          	mov    %rdi,-0x28(%rbp)
      const node_ptr null_node = node_ptr();
    3ad8:	48 c7 45 d0 00 00 00 	movq   $0x0,-0x30(%rbp)
    3adf:	00 
      NodeTraits::set_next(this_node, null_node);
    3ae0:	48 8b 45 d8          	mov    -0x28(%rbp),%rax
    3ae4:	48 89 45 e8          	mov    %rax,-0x18(%rbp)
    3ae8:	48 c7 45 e0 00 00 00 	movq   $0x0,-0x20(%rbp)
    3aef:	00 
   {  n->next_ = next;  }
    3af0:	48 8b 4d e0          	mov    -0x20(%rbp),%rcx
    3af4:	48 8b 45 e8          	mov    -0x18(%rbp),%rax
    3af8:	48 89 08             	mov    %rcx,(%rax)
      NodeTraits::set_previous(this_node, null_node);
    3afb:	48 8b 45 d8          	mov    -0x28(%rbp),%rax
    3aff:	48 89 45 f8          	mov    %rax,-0x8(%rbp)
    3b03:	48 c7 45 f0 00 00 00 	movq   $0x0,-0x10(%rbp)
    3b0a:	00 
   {  n->prev_ = prev;  }
    3b0b:	48 8b 4d f0          	mov    -0x10(%rbp),%rcx
    3b0f:	48 8b 45 f8          	mov    -0x8(%rbp),%rax
    3b13:	48 89 48 08          	mov    %rcx,0x8(%rax)
   }
    3b17:	5d                   	pop    %rbp
    3b18:	c3                   	ret
    3b19:	0f 1f 80 00 00 00 00 	nopl   0x0(%rax)

0000000000003b20 <_ZN5boost9intrusive9list_implINS0_8mhtraitsIN4ours3mem7PmFrameENS0_16list_member_hookIJEEEXadL_ZNS5_13managed_hook_EEEEEmLb1EvE17clear_and_disposeINS0_6detail13null_disposerEEEvT_>:
   {
    3b20:	55                   	push   %rbp
    3b21:	48 89 e5             	mov    %rsp,%rbp
    3b24:	48 81 ec c0 02 00 00 	sub    $0x2c0,%rsp
    3b2b:	48 89 bd 70 fd ff ff 	mov    %rdi,-0x290(%rbp)
    3b32:	48 8b 85 70 fd ff ff 	mov    -0x290(%rbp),%rax
    3b39:	48 89 85 40 fd ff ff 	mov    %rax,-0x2c0(%rbp)
    3b40:	48 8d 8d 60 fd ff ff 	lea    -0x2a0(%rbp),%rcx
    3b47:	48 89 8d c0 fd ff ff 	mov    %rcx,-0x240(%rbp)
    3b4e:	48 89 85 b8 fd ff ff 	mov    %rax,-0x248(%rbp)
    3b55:	48 8b 8d b8 fd ff ff 	mov    -0x248(%rbp),%rcx
    3b5c:	48 89 8d c8 fd ff ff 	mov    %rcx,-0x238(%rbp)
    3b63:	48 8b 95 c8 fd ff ff 	mov    -0x238(%rbp),%rdx
   { return data_.root_plus_size_.m_header.get_node(); }
    3b6a:	48 83 c2 08          	add    $0x8,%rdx
    3b6e:	48 89 95 d0 fd ff ff 	mov    %rdx,-0x230(%rbp)
    3b75:	48 8b 95 d0 fd ff ff 	mov    -0x230(%rbp),%rdx
    3b7c:	48 89 95 d8 fd ff ff 	mov    %rdx,-0x228(%rbp)
    3b83:	48 8b 95 d8 fd ff ff 	mov    -0x228(%rbp),%rdx
    3b8a:	48 89 95 e0 fd ff ff 	mov    %rdx,-0x220(%rbp)
    3b91:	48 8b 95 e0 fd ff ff 	mov    -0x220(%rbp),%rdx
    3b98:	48 89 95 98 fe ff ff 	mov    %rdx,-0x168(%rbp)
   {  return n->next_;  }
    3b9f:	48 8b 95 98 fe ff ff 	mov    -0x168(%rbp),%rdx
    3ba6:	48 8b 12             	mov    (%rdx),%rdx
    3ba9:	48 89 8d a8 fe ff ff 	mov    %rcx,-0x158(%rbp)
    3bb0:	48 8b 8d a8 fe ff ff 	mov    -0x158(%rbp),%rcx
    3bb7:	48 89 8d f0 fe ff ff 	mov    %rcx,-0x110(%rbp)
    3bbe:	48 8b 8d f0 fe ff ff 	mov    -0x110(%rbp),%rcx
    3bc5:	48 89 8d e0 fe ff ff 	mov    %rcx,-0x120(%rbp)
    3bcc:	48 8b 8d e0 fe ff ff 	mov    -0x120(%rbp),%rcx
    3bd3:	48 89 8d 08 ff ff ff 	mov    %rcx,-0xf8(%rbp)
    3bda:	48 8b 8d 08 ff ff ff 	mov    -0xf8(%rbp),%rcx
    3be1:	48 8d b5 60 fd ff ff 	lea    -0x2a0(%rbp),%rsi
    3be8:	48 89 b5 d8 fe ff ff 	mov    %rsi,-0x128(%rbp)
    3bef:	48 89 95 d0 fe ff ff 	mov    %rdx,-0x130(%rbp)
    3bf6:	48 89 8d c8 fe ff ff 	mov    %rcx,-0x138(%rbp)
    3bfd:	48 8b 8d d8 fe ff ff 	mov    -0x128(%rbp),%rcx
    3c04:	48 89 8d 20 ff ff ff 	mov    %rcx,-0xe0(%rbp)
    3c0b:	48 8d 8d d0 fe ff ff 	lea    -0x130(%rbp),%rcx
    3c12:	48 89 8d 18 ff ff ff 	mov    %rcx,-0xe8(%rbp)
    3c19:	48 8d 8d c8 fe ff ff 	lea    -0x138(%rbp),%rcx
    3c20:	48 89 8d 10 ff ff ff 	mov    %rcx,-0xf0(%rbp)
    3c27:	48 8b 8d 20 ff ff ff 	mov    -0xe0(%rbp),%rcx
   BOOST_INTRUSIVE_FORCEINLINE iiterator_members()
      : nodeptr_()//Value initialization to achieve "null iterators" (N3644)
   {}

   BOOST_INTRUSIVE_FORCEINLINE iiterator_members(const NodePtr &n_ptr, const StoredPointer &)
      : nodeptr_(n_ptr)
    3c2e:	48 8b 95 18 ff ff ff 	mov    -0xe8(%rbp),%rdx
    3c35:	48 8b 12             	mov    (%rdx),%rdx
    3c38:	48 89 11             	mov    %rdx,(%rcx)
    3c3b:	48 8d 8d 68 fd ff ff 	lea    -0x298(%rbp),%rcx
    3c42:	48 89 8d 00 fe ff ff 	mov    %rcx,-0x200(%rbp)
    3c49:	48 8d 8d 60 fd ff ff 	lea    -0x2a0(%rbp),%rcx
    3c50:	48 89 8d f8 fd ff ff 	mov    %rcx,-0x208(%rbp)
    3c57:	48 8b 8d 00 fe ff ff 	mov    -0x200(%rbp),%rcx
   BOOST_INTRUSIVE_FORCEINLINE list_iterator(const list_iterator &other)
      :  members_(other.pointed_node(), other.get_value_traits())
   {}

   BOOST_INTRUSIVE_FORCEINLINE list_iterator(const nonconst_iterator &other)
      :  members_(other.pointed_node(), other.get_value_traits())
    3c5e:	48 8b 95 f8 fd ff ff 	mov    -0x208(%rbp),%rdx
    3c65:	48 89 95 78 ff ff ff 	mov    %rdx,-0x88(%rbp)
    3c6c:	48 8b 95 78 ff ff ff 	mov    -0x88(%rbp),%rdx

   BOOST_INTRUSIVE_FORCEINLINE list_iterator &operator=(const list_iterator &other)
   {  members_.nodeptr_ = other.members_.nodeptr_;  return *this;  }

   BOOST_INTRUSIVE_FORCEINLINE node_ptr pointed_node() const
   { return members_.nodeptr_; }
    3c73:	48 8b 12             	mov    (%rdx),%rdx
      :  members_(other.pointed_node(), other.get_value_traits())
    3c76:	48 89 95 f0 fd ff ff 	mov    %rdx,-0x210(%rbp)
    3c7d:	48 8b 95 f8 fd ff ff 	mov    -0x208(%rbp),%rdx
    3c84:	48 89 55 88          	mov    %rdx,-0x78(%rbp)
    3c88:	48 8b 55 88          	mov    -0x78(%rbp),%rdx
    3c8c:	48 89 55 90          	mov    %rdx,-0x70(%rbp)
    3c90:	48 c7 85 e8 fd ff ff 	movq   $0x0,-0x218(%rbp)
    3c97:	00 00 00 00 
    3c9b:	48 89 8d 68 ff ff ff 	mov    %rcx,-0x98(%rbp)
    3ca2:	48 8d 8d f0 fd ff ff 	lea    -0x210(%rbp),%rcx
    3ca9:	48 89 8d 60 ff ff ff 	mov    %rcx,-0xa0(%rbp)
    3cb0:	48 8d 8d e8 fd ff ff 	lea    -0x218(%rbp),%rcx
    3cb7:	48 89 8d 58 ff ff ff 	mov    %rcx,-0xa8(%rbp)
    3cbe:	48 8b 8d 68 ff ff ff 	mov    -0x98(%rbp),%rcx
    3cc5:	48 8b 95 60 ff ff ff 	mov    -0xa0(%rbp),%rdx
    3ccc:	48 8b 12             	mov    (%rdx),%rdx
    3ccf:	48 89 11             	mov    %rdx,(%rcx)
    3cd2:	48 8d 8d 50 fd ff ff 	lea    -0x2b0(%rbp),%rcx
    3cd9:	48 89 8d 30 fe ff ff 	mov    %rcx,-0x1d0(%rbp)
    3ce0:	48 89 85 28 fe ff ff 	mov    %rax,-0x1d8(%rbp)
    3ce7:	48 8b 85 28 fe ff ff 	mov    -0x1d8(%rbp),%rax
    3cee:	48 89 85 38 fe ff ff 	mov    %rax,-0x1c8(%rbp)
    3cf5:	48 8b 8d 38 fe ff ff 	mov    -0x1c8(%rbp),%rcx
    3cfc:	48 83 c1 08          	add    $0x8,%rcx
    3d00:	48 89 8d 40 fe ff ff 	mov    %rcx,-0x1c0(%rbp)
    3d07:	48 8b 8d 40 fe ff ff 	mov    -0x1c0(%rbp),%rcx
    3d0e:	48 89 8d 48 fe ff ff 	mov    %rcx,-0x1b8(%rbp)
    3d15:	48 8b 8d 48 fe ff ff 	mov    -0x1b8(%rbp),%rcx
    3d1c:	48 89 8d 50 fe ff ff 	mov    %rcx,-0x1b0(%rbp)
    3d23:	48 8b 8d 50 fe ff ff 	mov    -0x1b0(%rbp),%rcx
    3d2a:	48 89 85 a0 fe ff ff 	mov    %rax,-0x160(%rbp)
    3d31:	48 8b 85 a0 fe ff ff 	mov    -0x160(%rbp),%rax
    3d38:	48 89 85 f8 fe ff ff 	mov    %rax,-0x108(%rbp)
    3d3f:	48 8b 85 f8 fe ff ff 	mov    -0x108(%rbp),%rax
    3d46:	48 89 85 e8 fe ff ff 	mov    %rax,-0x118(%rbp)
    3d4d:	48 8b 85 e8 fe ff ff 	mov    -0x118(%rbp),%rax
    3d54:	48 89 85 00 ff ff ff 	mov    %rax,-0x100(%rbp)
    3d5b:	48 8b 85 00 ff ff ff 	mov    -0x100(%rbp),%rax
    3d62:	48 8d 95 50 fd ff ff 	lea    -0x2b0(%rbp),%rdx
    3d69:	48 89 95 c0 fe ff ff 	mov    %rdx,-0x140(%rbp)
    3d70:	48 89 8d b8 fe ff ff 	mov    %rcx,-0x148(%rbp)
    3d77:	48 89 85 b0 fe ff ff 	mov    %rax,-0x150(%rbp)
    3d7e:	48 8b 85 c0 fe ff ff 	mov    -0x140(%rbp),%rax
    3d85:	48 89 85 38 ff ff ff 	mov    %rax,-0xc8(%rbp)
    3d8c:	48 8d 85 b8 fe ff ff 	lea    -0x148(%rbp),%rax
    3d93:	48 89 85 30 ff ff ff 	mov    %rax,-0xd0(%rbp)
    3d9a:	48 8d 85 b0 fe ff ff 	lea    -0x150(%rbp),%rax
    3da1:	48 89 85 28 ff ff ff 	mov    %rax,-0xd8(%rbp)
    3da8:	48 8b 85 38 ff ff ff 	mov    -0xc8(%rbp),%rax
    3daf:	48 8b 8d 30 ff ff ff 	mov    -0xd0(%rbp),%rcx
    3db6:	48 8b 09             	mov    (%rcx),%rcx
    3db9:	48 89 08             	mov    %rcx,(%rax)
    3dbc:	48 8d 85 58 fd ff ff 	lea    -0x2a8(%rbp),%rax
    3dc3:	48 89 85 20 fe ff ff 	mov    %rax,-0x1e0(%rbp)
    3dca:	48 8d 85 50 fd ff ff 	lea    -0x2b0(%rbp),%rax
    3dd1:	48 89 85 18 fe ff ff 	mov    %rax,-0x1e8(%rbp)
    3dd8:	48 8b 85 20 fe ff ff 	mov    -0x1e0(%rbp),%rax
    3ddf:	48 8b 8d 18 fe ff ff 	mov    -0x1e8(%rbp),%rcx
    3de6:	48 89 8d 70 ff ff ff 	mov    %rcx,-0x90(%rbp)
    3ded:	48 8b 8d 70 ff ff ff 	mov    -0x90(%rbp),%rcx
   { return members_.nodeptr_; }
    3df4:	48 8b 09             	mov    (%rcx),%rcx
      :  members_(other.pointed_node(), other.get_value_traits())
    3df7:	48 89 8d 10 fe ff ff 	mov    %rcx,-0x1f0(%rbp)
    3dfe:	48 8b 8d 18 fe ff ff 	mov    -0x1e8(%rbp),%rcx
    3e05:	48 89 4d 80          	mov    %rcx,-0x80(%rbp)
    3e09:	48 8b 4d 80          	mov    -0x80(%rbp),%rcx
    3e0d:	48 89 4d 98          	mov    %rcx,-0x68(%rbp)
    3e11:	48 c7 85 08 fe ff ff 	movq   $0x0,-0x1f8(%rbp)
    3e18:	00 00 00 00 
    3e1c:	48 89 85 50 ff ff ff 	mov    %rax,-0xb0(%rbp)
    3e23:	48 8d 85 10 fe ff ff 	lea    -0x1f0(%rbp),%rax
    3e2a:	48 89 85 48 ff ff ff 	mov    %rax,-0xb8(%rbp)
    3e31:	48 8d 85 08 fe ff ff 	lea    -0x1f8(%rbp),%rax
    3e38:	48 89 85 40 ff ff ff 	mov    %rax,-0xc0(%rbp)
    3e3f:	48 8b 85 50 ff ff ff 	mov    -0xb0(%rbp),%rax
    3e46:	48 8b 8d 48 ff ff ff 	mov    -0xb8(%rbp),%rcx
    3e4d:	48 8b 09             	mov    (%rcx),%rcx
    3e50:	48 89 08             	mov    %rcx,(%rax)
    3e53:	48 8d 85 68 fd ff ff 	lea    -0x298(%rbp),%rax
    3e5a:	48 89 85 60 fe ff ff 	mov    %rax,-0x1a0(%rbp)
    3e61:	48 8d 85 58 fd ff ff 	lea    -0x2a8(%rbp),%rax
    3e68:	48 89 85 58 fe ff ff 	mov    %rax,-0x1a8(%rbp)

   BOOST_INTRUSIVE_FORCEINLINE friend bool operator== (const list_iterator& l, const list_iterator& r)
   {  return l.pointed_node() == r.pointed_node();   }

   BOOST_INTRUSIVE_FORCEINLINE friend bool operator!= (const list_iterator& l, const list_iterator& r)
   {  return !(l == r); }
    3e6f:	48 8b 8d 60 fe ff ff 	mov    -0x1a0(%rbp),%rcx
    3e76:	48 8b 85 58 fe ff ff 	mov    -0x1a8(%rbp),%rax
    3e7d:	48 89 4d a8          	mov    %rcx,-0x58(%rbp)
    3e81:	48 89 45 a0          	mov    %rax,-0x60(%rbp)
   {  return l.pointed_node() == r.pointed_node();   }
    3e85:	48 8b 45 a8          	mov    -0x58(%rbp),%rax
    3e89:	48 89 45 b8          	mov    %rax,-0x48(%rbp)
    3e8d:	48 8b 45 b8          	mov    -0x48(%rbp),%rax
   { return members_.nodeptr_; }
    3e91:	48 8b 00             	mov    (%rax),%rax
   {  return l.pointed_node() == r.pointed_node();   }
    3e94:	48 8b 4d a0          	mov    -0x60(%rbp),%rcx
    3e98:	48 89 4d b0          	mov    %rcx,-0x50(%rbp)
    3e9c:	48 8b 4d b0          	mov    -0x50(%rbp),%rcx
    3ea0:	48 3b 01             	cmp    (%rcx),%rax
    3ea3:	0f 94 c0             	sete   %al
   {  return !(l == r); }
    3ea6:	34 ff                	xor    $0xff,%al
      while(it != itend){
    3ea8:	a8 01                	test   $0x1,%al
    3eaa:	75 05                	jne    3eb1 <_ZN5boost9intrusive9list_implINS0_8mhtraitsIN4ours3mem7PmFrameENS0_16list_member_hookIJEEEXadL_ZNS5_13managed_hook_EEEEEmLb1EvE17clear_and_disposeINS0_6detail13null_disposerEEEvT_+0x391>
    3eac:	e9 e7 00 00 00       	jmp    3f98 <_ZN5boost9intrusive9list_implINS0_8mhtraitsIN4ours3mem7PmFrameENS0_16list_member_hookIJEEEXadL_ZNS5_13managed_hook_EEEEEmLb1EvE17clear_and_disposeINS0_6detail13null_disposerEEEvT_+0x478>
    3eb1:	48 8d 85 68 fd ff ff 	lea    -0x298(%rbp),%rax
    3eb8:	48 89 85 68 fe ff ff 	mov    %rax,-0x198(%rbp)
    3ebf:	48 8b 85 68 fe ff ff 	mov    -0x198(%rbp),%rax
   { return members_.nodeptr_; }
    3ec6:	48 8b 00             	mov    (%rax),%rax
         node_ptr to_erase(it.pointed_node());
    3ec9:	48 89 85 48 fd ff ff 	mov    %rax,-0x2b8(%rbp)
    3ed0:	48 8d 85 68 fd ff ff 	lea    -0x298(%rbp),%rax
    3ed7:	48 89 85 78 fe ff ff 	mov    %rax,-0x188(%rbp)
    3ede:	48 8b 85 78 fe ff ff 	mov    -0x188(%rbp),%rax
      node_ptr p = node_traits::get_next(members_.nodeptr_);
    3ee5:	48 8b 08             	mov    (%rax),%rcx
    3ee8:	48 89 8d 90 fe ff ff 	mov    %rcx,-0x170(%rbp)
    3eef:	48 8b 8d 90 fe ff ff 	mov    -0x170(%rbp),%rcx
    3ef6:	48 8b 09             	mov    (%rcx),%rcx
    3ef9:	48 89 8d 70 fe ff ff 	mov    %rcx,-0x190(%rbp)
      members_.nodeptr_ = p;
    3f00:	48 8b 8d 70 fe ff ff 	mov    -0x190(%rbp),%rcx
    3f07:	48 89 08             	mov    %rcx,(%rax)
            node_algorithms::init(to_erase);
    3f0a:	48 8b bd 48 fd ff ff 	mov    -0x2b8(%rbp),%rdi
    3f11:	e8 ba fb ff ff       	call   3ad0 <_ZN5boost9intrusive24circular_list_algorithmsINS0_16list_node_traitsIPvEEE4initEPNS0_9list_nodeIS3_EE>
    3f16:	48 8b 85 40 fd ff ff 	mov    -0x2c0(%rbp),%rax
    3f1d:	48 89 85 80 fe ff ff 	mov    %rax,-0x180(%rbp)
         disposer(priv_value_traits().to_value_ptr(to_erase));
    3f24:	48 8b 85 48 fd ff ff 	mov    -0x2b8(%rbp),%rax
    3f2b:	48 89 85 88 fe ff ff 	mov    %rax,-0x178(%rbp)

   BOOST_INTRUSIVE_FORCEINLINE static pointer to_value_ptr(node_ptr n)
   {
      return pointer_traits<pointer>::pointer_to
         (*detail::parent_from_member<T, Hook>
            (static_cast<Hook*>(boost::movelib::to_raw_pointer(n)), P));
    3f32:	48 8b 85 88 fe ff ff 	mov    -0x178(%rbp),%rax
    3f39:	48 89 45 d8          	mov    %rax,-0x28(%rbp)
namespace boost {
namespace movelib {

template <class T>
BOOST_MOVE_FORCEINLINE T* to_raw_pointer(T* p)
{  return p; }
    3f3d:	48 8b 45 d8          	mov    -0x28(%rbp),%rax
    3f41:	48 89 45 d0          	mov    %rax,-0x30(%rbp)
    3f45:	48 c7 45 c8 00 00 00 	movq   $0x0,-0x38(%rbp)
    3f4c:	00 
{
   return static_cast<Parent*>
      (
         static_cast<void*>
         (
            static_cast<char*>(static_cast<void*>(member)) - offset_from_pointer_to_member(ptr_to_member)
    3f4d:	48 8b 45 d0          	mov    -0x30(%rbp),%rax
    3f51:	48 8b 4d c8          	mov    -0x38(%rbp),%rcx
    3f55:	48 89 4d f8          	mov    %rcx,-0x8(%rbp)
   const Parent * const parent = 0;
    3f59:	48 c7 45 f0 00 00 00 	movq   $0x0,-0x10(%rbp)
    3f60:	00 
   const char *const member = static_cast<const char*>(static_cast<const void*>(&(parent->*ptr_to_member)));
    3f61:	31 c9                	xor    %ecx,%ecx
    3f63:	48 03 4d f8          	add    -0x8(%rbp),%rcx
    3f67:	48 89 4d e8          	mov    %rcx,-0x18(%rbp)
   return std::ptrdiff_t(member - static_cast<const char*>(static_cast<const void*>(parent)));
    3f6b:	48 8b 55 e8          	mov    -0x18(%rbp),%rdx
            static_cast<char*>(static_cast<void*>(member)) - offset_from_pointer_to_member(ptr_to_member)
    3f6f:	31 c9                	xor    %ecx,%ecx
    3f71:	48 29 d1             	sub    %rdx,%rcx
    3f74:	48 01 c8             	add    %rcx,%rax
    3f77:	48 89 45 c0          	mov    %rax,-0x40(%rbp)
    3f7b:	48 8b 45 c0          	mov    -0x40(%rbp),%rax
    3f7f:	48 89 45 e0          	mov    %rax,-0x20(%rbp)
    3f83:	48 8b 75 e0          	mov    -0x20(%rbp),%rsi
    3f87:	48 8d bd 7f fd ff ff 	lea    -0x281(%rbp),%rdi
    3f8e:	e8 9d 00 00 00       	call   4030 <_ZN5boost9intrusive6detail13null_disposerclIPN4ours3mem7PmFrameEEEvT_>
      while(it != itend){
    3f93:	e9 bb fe ff ff       	jmp    3e53 <_ZN5boost9intrusive9list_implINS0_8mhtraitsIN4ours3mem7PmFrameENS0_16list_member_hookIJEEEXadL_ZNS5_13managed_hook_EEEEEmLb1EvE17clear_and_disposeINS0_6detail13null_disposerEEEvT_+0x333>
    3f98:	48 8b 85 40 fd ff ff 	mov    -0x2c0(%rbp),%rax
    3f9f:	48 89 85 98 fd ff ff 	mov    %rax,-0x268(%rbp)
    3fa6:	48 8b 85 98 fd ff ff 	mov    -0x268(%rbp),%rax
   { return data_.root_plus_size_.m_header.get_node(); }
    3fad:	48 83 c0 08          	add    $0x8,%rax
    3fb1:	48 89 85 a0 fd ff ff 	mov    %rax,-0x260(%rbp)
    3fb8:	48 8b 85 a0 fd ff ff 	mov    -0x260(%rbp),%rax
    3fbf:	48 89 85 a8 fd ff ff 	mov    %rax,-0x258(%rbp)
    3fc6:	48 8b 85 a8 fd ff ff 	mov    -0x258(%rbp),%rax
    3fcd:	48 89 85 b0 fd ff ff 	mov    %rax,-0x250(%rbp)
    3fd4:	48 8b bd b0 fd ff ff 	mov    -0x250(%rbp),%rdi
      node_algorithms::init_header(this->get_root_node());
    3fdb:	e8 d0 f9 ff ff       	call   39b0 <_ZN5boost9intrusive24circular_list_algorithmsINS0_16list_node_traitsIPvEEE11init_headerEPNS0_9list_nodeIS3_EE>
    3fe0:	48 8b 85 40 fd ff ff 	mov    -0x2c0(%rbp),%rax
    3fe7:	48 89 85 80 fd ff ff 	mov    %rax,-0x280(%rbp)
    3fee:	48 8b 85 80 fd ff ff 	mov    -0x280(%rbp),%rax
    3ff5:	48 89 85 90 fd ff ff 	mov    %rax,-0x270(%rbp)
    3ffc:	48 c7 85 88 fd ff ff 	movq   $0x0,-0x278(%rbp)
    4003:	00 00 00 00 
    4007:	48 8b 85 90 fd ff ff 	mov    -0x270(%rbp),%rax
    400e:	48 8b 8d 88 fd ff ff 	mov    -0x278(%rbp),%rcx
    4015:	48 89 08             	mov    %rcx,(%rax)
   }
    4018:	48 81 c4 c0 02 00 00 	add    $0x2c0,%rsp
    401f:	5d                   	pop    %rbp
    4020:	c3                   	ret
    4021:	66 2e 0f 1f 84 00 00 	cs nopw 0x0(%rax,%rax,1)
    4028:	00 00 00 
    402b:	0f 1f 44 00 00       	nopl   0x0(%rax,%rax,1)

0000000000004030 <_ZN5boost9intrusive6detail13null_disposerclIPN4ours3mem7PmFrameEEEvT_>:
class null_disposer
{
   public:
   template <class Pointer>
   void operator()(Pointer)
   {}
    4030:	55                   	push   %rbp
    4031:	48 89 e5             	mov    %rsp,%rbp
    4034:	48 89 7d f8          	mov    %rdi,-0x8(%rbp)
    4038:	48 89 75 f0          	mov    %rsi,-0x10(%rbp)
    403c:	5d                   	pop    %rbp
    403d:	c3                   	ret
    403e:	66 90                	xchg   %ax,%ax

0000000000004040 <_ZN4ours19x86_setup_idt_earlyEv>:

    /// Defined in arch/x86/main/idt.S, default value per entry is 
    /// the hanler.
    NO_MANGLE Idt g_idt;

    auto x86_setup_idt_early() -> void {
    4040:	55                   	push   %rbp
    4041:	48 89 e5             	mov    %rsp,%rbp
    4044:	48 83 ec 30          	sub    $0x30,%rsp
        for (auto &entry: g_idt) {
    4048:	48 8d 05 b1 bf 02 00 	lea    0x2bfb1(%rip),%rax        # 30000 <g_idt>
    404f:	48 89 45 f0          	mov    %rax,-0x10(%rbp)
    4053:	48 8d 3d a6 bf 02 00 	lea    0x2bfa6(%rip),%rdi        # 30000 <g_idt>
    405a:	e8 71 00 00 00       	call   40d0 <_ZN4ours3Idt5beginEv>
    405f:	48 89 45 e8          	mov    %rax,-0x18(%rbp)
    4063:	48 8d 3d 96 bf 02 00 	lea    0x2bf96(%rip),%rdi        # 30000 <g_idt>
    406a:	e8 81 00 00 00       	call   40f0 <_ZN4ours3Idt3endEv>
    406f:	48 89 45 e0          	mov    %rax,-0x20(%rbp)
    4073:	48 8b 45 e8          	mov    -0x18(%rbp),%rax
    4077:	48 3b 45 e0          	cmp    -0x20(%rbp),%rax
    407b:	74 2e                	je     40ab <_ZN4ours19x86_setup_idt_earlyEv+0x6b>
    407d:	48 8b 45 e8          	mov    -0x18(%rbp),%rax
    4081:	48 89 45 d8          	mov    %rax,-0x28(%rbp)
            rectify_idt(entry);
    4085:	48 8b 45 d8          	mov    -0x28(%rbp),%rax
    4089:	48 89 45 f8          	mov    %rax,-0x8(%rbp)
        entry.set(*reinterpret_cast<usize *>(&entry));
    408d:	48 8b 7d f8          	mov    -0x8(%rbp),%rdi
    4091:	48 8b 45 f8          	mov    -0x8(%rbp),%rax
    4095:	48 8b 30             	mov    (%rax),%rsi
    4098:	e8 c3 00 00 00       	call   4160 <_ZN4ours8IdtEntry3setEm>
        for (auto &entry: g_idt) {
    409d:	48 8b 45 e8          	mov    -0x18(%rbp),%rax
    40a1:	48 83 c0 10          	add    $0x10,%rax
    40a5:	48 89 45 e8          	mov    %rax,-0x18(%rbp)
    40a9:	eb c8                	jmp    4073 <_ZN4ours19x86_setup_idt_earlyEv+0x33>
        }

        g_idt.load();
    40ab:	48 8d 3d 4e bf 02 00 	lea    0x2bf4e(%rip),%rdi        # 30000 <g_idt>
    40b2:	e8 59 00 00 00       	call   4110 <_ZNK4ours3Idt4loadEv>
    }
    40b7:	48 83 c4 30          	add    $0x30,%rsp
    40bb:	5d                   	pop    %rbp
    40bc:	c3                   	ret
    40bd:	0f 1f 00             	nopl   (%rax)

00000000000040c0 <_ZN4ours13x86_setup_idtEv>:

    auto x86_setup_idt() -> void {
    40c0:	55                   	push   %rbp
    40c1:	48 89 e5             	mov    %rsp,%rbp
        
    }
    40c4:	5d                   	pop    %rbp
    40c5:	c3                   	ret
    40c6:	66 2e 0f 1f 84 00 00 	cs nopw 0x0(%rax,%rax,1)
    40cd:	00 00 00 

00000000000040d0 <_ZN4ours3Idt5beginEv>:
        auto begin() {
    40d0:	55                   	push   %rbp
    40d1:	48 89 e5             	mov    %rsp,%rbp
    40d4:	48 83 ec 10          	sub    $0x10,%rsp
    40d8:	48 89 7d f8          	mov    %rdi,-0x8(%rbp)
    40dc:	48 8b 7d f8          	mov    -0x8(%rbp),%rdi
            return std::begin(entries_);
    40e0:	e8 4b 00 00 00       	call   4130 <_ZNSt3__15beginB8nn210000IN4ours8IdtEntryELm256EEEPT_RAT0__S3_>
    40e5:	48 83 c4 10          	add    $0x10,%rsp
    40e9:	5d                   	pop    %rbp
    40ea:	c3                   	ret
    40eb:	0f 1f 44 00 00       	nopl   0x0(%rax,%rax,1)

00000000000040f0 <_ZN4ours3Idt3endEv>:
        auto end() {
    40f0:	55                   	push   %rbp
    40f1:	48 89 e5             	mov    %rsp,%rbp
    40f4:	48 83 ec 10          	sub    $0x10,%rsp
    40f8:	48 89 7d f8          	mov    %rdi,-0x8(%rbp)
    40fc:	48 8b 7d f8          	mov    -0x8(%rbp),%rdi
            return std::end(entries_);
    4100:	e8 3b 00 00 00       	call   4140 <_ZNSt3__13endB8nn210000IN4ours8IdtEntryELm256EEEPT_RAT0__S3_>
    4105:	48 83 c4 10          	add    $0x10,%rsp
    4109:	5d                   	pop    %rbp
    410a:	c3                   	ret
    410b:	0f 1f 44 00 00       	nopl   0x0(%rax,%rax,1)

0000000000004110 <_ZNK4ours3Idt4loadEv>:
        auto load() const -> void {
    4110:	55                   	push   %rbp
    4111:	48 89 e5             	mov    %rsp,%rbp
    4114:	48 89 7d f8          	mov    %rdi,-0x8(%rbp)
    4118:	48 8b 45 f8          	mov    -0x8(%rbp),%rax
            } desc { sizeof(*this), reinterpret_cast<usize>(this) };
    411c:	66 c7 45 ee 00 10    	movw   $0x1000,-0x12(%rbp)
    4122:	48 89 45 f0          	mov    %rax,-0x10(%rbp)
            asm volatile("lidt %0" :: "m"(desc));
    4126:	0f 01 5d ee          	lidt   -0x12(%rbp)
        }
    412a:	5d                   	pop    %rbp
    412b:	c3                   	ret
    412c:	0f 1f 40 00          	nopl   0x0(%rax)

0000000000004130 <_ZNSt3__15beginB8nn210000IN4ours8IdtEntryELm256EEEPT_RAT0__S3_>:
#endif

_LIBCPP_BEGIN_NAMESPACE_STD

template <class _Tp, size_t _Np>
_LIBCPP_HIDE_FROM_ABI _LIBCPP_CONSTEXPR _Tp* begin(_Tp (&__array)[_Np]) _NOEXCEPT {
    4130:	55                   	push   %rbp
    4131:	48 89 e5             	mov    %rsp,%rbp
    4134:	48 89 7d f8          	mov    %rdi,-0x8(%rbp)
  return __array;
    4138:	48 8b 45 f8          	mov    -0x8(%rbp),%rax
    413c:	5d                   	pop    %rbp
    413d:	c3                   	ret
    413e:	66 90                	xchg   %ax,%ax

0000000000004140 <_ZNSt3__13endB8nn210000IN4ours8IdtEntryELm256EEEPT_RAT0__S3_>:
}

template <class _Tp, size_t _Np>
_LIBCPP_HIDE_FROM_ABI _LIBCPP_CONSTEXPR _Tp* end(_Tp (&__array)[_Np]) _NOEXCEPT {
    4140:	55                   	push   %rbp
    4141:	48 89 e5             	mov    %rsp,%rbp
    4144:	48 89 7d f8          	mov    %rdi,-0x8(%rbp)
  return __array + _Np;
    4148:	48 8b 45 f8          	mov    -0x8(%rbp),%rax
    414c:	48 05 00 10 00 00    	add    $0x1000,%rax
    4152:	5d                   	pop    %rbp
    4153:	c3                   	ret
    4154:	66 2e 0f 1f 84 00 00 	cs nopw 0x0(%rax,%rax,1)
    415b:	00 00 00 
    415e:	66 90                	xchg   %ax,%ax

0000000000004160 <_ZN4ours8IdtEntry3setEm>:
        auto set(usize handler) -> void {
    4160:	55                   	push   %rbp
    4161:	48 89 e5             	mov    %rsp,%rbp
    4164:	48 89 7d f8          	mov    %rdi,-0x8(%rbp)
    4168:	48 89 75 f0          	mov    %rsi,-0x10(%rbp)
    416c:	48 8b 45 f8          	mov    -0x8(%rbp),%rax
            offset_low  = handler & 0xFFFF;
    4170:	48 8b 4d f0          	mov    -0x10(%rbp),%rcx
    4174:	48 81 e1 ff ff 00 00 	and    $0xffff,%rcx
    417b:	66 89 08             	mov    %cx,(%rax)
            selector    = 0x08;
    417e:	66 c7 40 02 08 00    	movw   $0x8,0x2(%rax)
            ist         = 0;
    4184:	c6 40 04 00          	movb   $0x0,0x4(%rax)
            type_attr   = 0x8E;
    4188:	c6 40 05 8e          	movb   $0x8e,0x5(%rax)
            offset_mid  = (handler >> 16) & 0xFFFF;
    418c:	48 8b 4d f0          	mov    -0x10(%rbp),%rcx
    4190:	48 c1 e9 10          	shr    $0x10,%rcx
    4194:	48 81 e1 ff ff 00 00 	and    $0xffff,%rcx
    419b:	66 89 48 06          	mov    %cx,0x6(%rax)
            offset_high = (handler >> 32) & 0xFFFFFFFF;
    419f:	48 8b 4d f0          	mov    -0x10(%rbp),%rcx
    41a3:	48 c1 e9 20          	shr    $0x20,%rcx
    41a7:	48 ba ff ff ff ff 00 	movabs $0xffffffff,%rdx
    41ae:	00 00 00 
    41b1:	48 21 d1             	and    %rdx,%rcx
    41b4:	89 48 08             	mov    %ecx,0x8(%rax)
            zero        = 0;
    41b7:	c7 40 0c 00 00 00 00 	movl   $0x0,0xc(%rax)
        }
    41be:	5d                   	pop    %rbp
    41bf:	c3                   	ret

00000000000041c0 <arch_handle_exception>:
        }
    }

    NO_MANGLE
    auto arch_handle_exception(arch::IrqVector vector, arch::IrqFrame *frame) -> void
    {}
    41c0:	55                   	push   %rbp
    41c1:	48 89 e5             	mov    %rsp,%rbp
    41c4:	89 7d fc             	mov    %edi,-0x4(%rbp)
    41c7:	48 89 75 f0          	mov    %rsi,-0x10(%rbp)
    41cb:	5d                   	pop    %rbp
    41cc:	c3                   	ret
    41cd:	0f 1f 00             	nopl   (%rax)

00000000000041d0 <_ZN4ours15x86_has_featureEN4arch14CpuFeatureTypeE>:

namespace ours {
    CPU_LOCAL
    static arch::X86CpuInfo g_x86_cpu_info;

    auto x86_has_feature(CpuFeatureType type) -> bool {
    41d0:	55                   	push   %rbp
    41d1:	48 89 e5             	mov    %rsp,%rbp
    41d4:	48 81 ec a0 00 00 00 	sub    $0xa0,%rsp
    41db:	89 7d 84             	mov    %edi,-0x7c(%rbp)
    41de:	48 8d 05 a3 f6 02 00 	lea    0x2f6a3(%rip),%rax        # 33888 <_ZN4oursL14g_x86_cpu_infoE>
    41e5:	48 89 45 a0          	mov    %rax,-0x60(%rbp)
        // The `arch-custom` object should be accessed by this interface.
        template <typename T>
        FORCE_INLINE
        static auto access(T *object) -> T * {
            auto const ptr = reinterpret_cast<T *>(
                reinterpret_cast<u8 *>(object) + read(s_current_cpu_offset)
    41e9:	48 8b 45 a0          	mov    -0x60(%rbp),%rax
    41ed:	48 8d 0d 8c f6 02 00 	lea    0x2f68c(%rip),%rcx        # 33880 <_ZN4ours8CpuLocal20s_current_cpu_offsetE>
    41f4:	48 89 4d c0          	mov    %rcx,-0x40(%rbp)
            return arch_cpu_local_read<Integral>(reinterpret_cast<usize>(&integer));
    41f8:	48 8b 4d c0          	mov    -0x40(%rbp),%rcx
    41fc:	48 89 4d d8          	mov    %rcx,-0x28(%rbp)
    }

    template <typename Integer>
    FORCE_INLINE
    static auto arch_cpu_local_read(usize offset) -> Integer {
        return arch::read_gs_offset<Integer>(offset);
    4200:	48 8b 4d d8          	mov    -0x28(%rbp),%rcx
    4204:	48 89 4d e8          	mov    %rcx,-0x18(%rbp)
namespace arch {
    template <typename Integer>
    FORCE_INLINE
    static auto read_gs_offset(usize offset) -> Integer {
        Integer ret;
        asm volatile("mov %%gs:%1, %0" : "=r"(ret) : "m"(*(Integer *)offset) : "memory");
    4208:	48 8b 4d e8          	mov    -0x18(%rbp),%rcx
    420c:	65 48 8b 09          	mov    %gs:(%rcx),%rcx
    4210:	48 89 4d e0          	mov    %rcx,-0x20(%rbp)
                reinterpret_cast<u8 *>(object) + read(s_current_cpu_offset)
    4214:	48 03 45 e0          	add    -0x20(%rbp),%rax
            auto const ptr = reinterpret_cast<T *>(
    4218:	48 89 45 98          	mov    %rax,-0x68(%rbp)
            );
            DEBUG_ASSERT(ustl::mem::is_aligned(ptr, alignof(T)), "Invalid cpu local data pointer");
    421c:	48 8b 45 98          	mov    -0x68(%rbp),%rax
    4220:	48 89 45 d0          	mov    %rax,-0x30(%rbp)
    4224:	48 c7 45 c8 08 00 00 	movq   $0x8,-0x38(%rbp)
    422b:	00 
    auto is_aligned(usize n, usize a) USTL_NOEXCEPT -> bool 
    { return (n & (a - 1)) == 0; }

    USTL_FORCEINLINE USTL_CONSTEXPR 
    auto is_aligned(void *n, usize a) USTL_NOEXCEPT -> bool 
    {  return is_aligned(usize(n), a);}
    422c:	48 8b 4d d0          	mov    -0x30(%rbp),%rcx
    4230:	48 8b 45 c8          	mov    -0x38(%rbp),%rax
    4234:	48 89 4d f8          	mov    %rcx,-0x8(%rbp)
    4238:	48 89 45 f0          	mov    %rax,-0x10(%rbp)
    { return (n & (a - 1)) == 0; }
    423c:	48 8b 45 f8          	mov    -0x8(%rbp),%rax
    4240:	48 8b 4d f0          	mov    -0x10(%rbp),%rcx
    4244:	48 83 e9 01          	sub    $0x1,%rcx
    4248:	48 21 c8             	and    %rcx,%rax
    424b:	48 83 f8 00          	cmp    $0x0,%rax
    424f:	74 1d                	je     426e <_ZN4ours15x86_has_featureEN4arch14CpuFeatureTypeE+0x9e>
    4251:	48 8d 35 90 ab 02 00 	lea    0x2ab90(%rip),%rsi        # 2ede8 <.L.str>
    4258:	48 8d 7d 88          	lea    -0x78(%rbp),%rdi
    425c:	e8 1f f0 ff ff       	call   3280 <_ZNSt3__117basic_string_viewIcNS_11char_traitsIcEEEC2B8nn210000EPKc>
    4261:	48 8b 7d 88          	mov    -0x78(%rbp),%rdi
    4265:	48 8b 75 90          	mov    -0x70(%rbp),%rsi
    4269:	e8 c2 ef ff ff       	call   3230 <_ZN4ours5panicIJEEEvNSt3__117basic_string_viewIcNS1_11char_traitsIcEEEEDpOT_>

            return ptr;
    426e:	48 8b 45 98          	mov    -0x68(%rbp),%rax
        auto cpuinfo = CpuLocal::access(&g_x86_cpu_info);
    4272:	48 89 85 78 ff ff ff 	mov    %rax,-0x88(%rbp)
        DEBUG_ASSERT(cpuinfo, "Failed to read CpuInfo");
    4279:	48 83 bd 78 ff ff ff 	cmpq   $0x0,-0x88(%rbp)
    4280:	00 
    4281:	75 26                	jne    42a9 <_ZN4ours15x86_has_featureEN4arch14CpuFeatureTypeE+0xd9>
    4283:	48 8d 35 f6 ab 02 00 	lea    0x2abf6(%rip),%rsi        # 2ee80 <.L.str>
    428a:	48 8d bd 68 ff ff ff 	lea    -0x98(%rbp),%rdi
    4291:	e8 ea ef ff ff       	call   3280 <_ZNSt3__117basic_string_viewIcNS_11char_traitsIcEEEC2B8nn210000EPKc>
    4296:	48 8b bd 68 ff ff ff 	mov    -0x98(%rbp),%rdi
    429d:	48 8b b5 70 ff ff ff 	mov    -0x90(%rbp),%rsi
    42a4:	e8 87 ef ff ff       	call   3230 <_ZN4ours5panicIJEEEvNSt3__117basic_string_viewIcNS1_11char_traitsIcEEEEDpOT_>

        return cpuinfo->feature().has_feature(type);
    42a9:	48 8b 85 78 ff ff ff 	mov    -0x88(%rbp),%rax
    42b0:	48 89 45 a8          	mov    %rax,-0x58(%rbp)
    42b4:	48 8b 4d a8          	mov    -0x58(%rbp),%rcx
    struct X86CpuInfo {
        auto init() -> void;

        FORCE_INLINE CXX11_CONSTEXPR
        auto feature() -> X86CpuFeature & {
            return features_;
    42b8:	48 83 c1 38          	add    $0x38,%rcx
    42bc:	8b 45 84             	mov    -0x7c(%rbp),%eax
    42bf:	48 89 4d b8          	mov    %rcx,-0x48(%rbp)
    42c3:	89 45 b4             	mov    %eax,-0x4c(%rbp)
    42c6:	48 8b 45 b8          	mov    -0x48(%rbp),%rax
    42ca:	48 89 85 60 ff ff ff 	mov    %rax,-0xa0(%rbp)
            : features_()
        {}

        FORCE_INLINE CXX11_CONSTEXPR
        auto has_feature(CpuFeatureType feature) -> bool {
            DEBUG_ASSERT(usize(feature) < kMaxNumFeatures);
    42d1:	48 63 45 b4          	movslq -0x4c(%rbp),%rax
    42d5:	48 3d bb 00 00 00    	cmp    $0xbb,%rax
    42db:	72 05                	jb     42e2 <_ZN4ours15x86_has_featureEN4arch14CpuFeatureTypeE+0x112>
    42dd:	e8 1e ee ff ff       	call   3100 <_ZN4ours5panicEv>
    42e2:	48 8b bd 60 ff ff ff 	mov    -0xa0(%rbp),%rdi
            return features_.test(usize(feature));
    42e9:	48 63 75 b4          	movslq -0x4c(%rbp),%rsi
    42ed:	e8 6e 01 00 00       	call   4460 <_ZNKSt3__16bitsetILm187EE4testB8nn210000Em>
    42f2:	24 01                	and    $0x1,%al
    42f4:	48 81 c4 a0 00 00 00 	add    $0xa0,%rsp
    42fb:	5d                   	pop    %rbp
    42fc:	c3                   	ret
    42fd:	0f 1f 00             	nopl   (%rax)

0000000000004300 <_ZN4ours22x86_init_feature_earlyEv>:
    }

    auto x86_init_feature_early() -> void {
    4300:	55                   	push   %rbp
    4301:	48 89 e5             	mov    %rsp,%rbp
    4304:	48 83 ec 70          	sub    $0x70,%rsp
    4308:	48 8d 05 79 f5 02 00 	lea    0x2f579(%rip),%rax        # 33888 <_ZN4oursL14g_x86_cpu_infoE>
    430f:	48 89 45 b8          	mov    %rax,-0x48(%rbp)
                reinterpret_cast<u8 *>(object) + read(s_current_cpu_offset)
    4313:	48 8b 45 b8          	mov    -0x48(%rbp),%rax
    4317:	48 8d 0d 62 f5 02 00 	lea    0x2f562(%rip),%rcx        # 33880 <_ZN4ours8CpuLocal20s_current_cpu_offsetE>
    431e:	48 89 4d c0          	mov    %rcx,-0x40(%rbp)
            return arch_cpu_local_read<Integral>(reinterpret_cast<usize>(&integer));
    4322:	48 8b 4d c0          	mov    -0x40(%rbp),%rcx
    4326:	48 89 4d d8          	mov    %rcx,-0x28(%rbp)
    432a:	48 8b 4d d8          	mov    -0x28(%rbp),%rcx
    432e:	48 89 4d e8          	mov    %rcx,-0x18(%rbp)
    4332:	48 8b 4d e8          	mov    -0x18(%rbp),%rcx
    4336:	65 48 8b 09          	mov    %gs:(%rcx),%rcx
    433a:	48 89 4d e0          	mov    %rcx,-0x20(%rbp)
                reinterpret_cast<u8 *>(object) + read(s_current_cpu_offset)
    433e:	48 03 45 e0          	add    -0x20(%rbp),%rax
            auto const ptr = reinterpret_cast<T *>(
    4342:	48 89 45 b0          	mov    %rax,-0x50(%rbp)
            DEBUG_ASSERT(ustl::mem::is_aligned(ptr, alignof(T)), "Invalid cpu local data pointer");
    4346:	48 8b 45 b0          	mov    -0x50(%rbp),%rax
    434a:	48 89 45 d0          	mov    %rax,-0x30(%rbp)
    434e:	48 c7 45 c8 08 00 00 	movq   $0x8,-0x38(%rbp)
    4355:	00 
    {  return is_aligned(usize(n), a);}
    4356:	48 8b 4d d0          	mov    -0x30(%rbp),%rcx
    435a:	48 8b 45 c8          	mov    -0x38(%rbp),%rax
    435e:	48 89 4d f8          	mov    %rcx,-0x8(%rbp)
    4362:	48 89 45 f0          	mov    %rax,-0x10(%rbp)
    { return (n & (a - 1)) == 0; }
    4366:	48 8b 45 f8          	mov    -0x8(%rbp),%rax
    436a:	48 8b 4d f0          	mov    -0x10(%rbp),%rcx
    436e:	48 83 e9 01          	sub    $0x1,%rcx
    4372:	48 21 c8             	and    %rcx,%rax
    4375:	48 83 f8 00          	cmp    $0x0,%rax
    4379:	74 1d                	je     4398 <_ZN4ours22x86_init_feature_earlyEv+0x98>
    437b:	48 8d 35 66 aa 02 00 	lea    0x2aa66(%rip),%rsi        # 2ede8 <.L.str>
    4382:	48 8d 7d a0          	lea    -0x60(%rbp),%rdi
    4386:	e8 f5 ee ff ff       	call   3280 <_ZNSt3__117basic_string_viewIcNS_11char_traitsIcEEEC2B8nn210000EPKc>
    438b:	48 8b 7d a0          	mov    -0x60(%rbp),%rdi
    438f:	48 8b 75 a8          	mov    -0x58(%rbp),%rsi
    4393:	e8 98 ee ff ff       	call   3230 <_ZN4ours5panicIJEEEvNSt3__117basic_string_viewIcNS1_11char_traitsIcEEEEDpOT_>
            return ptr;
    4398:	48 8b 45 b0          	mov    -0x50(%rbp),%rax
        auto cpuinfo = CpuLocal::access(&g_x86_cpu_info);
    439c:	48 89 45 98          	mov    %rax,-0x68(%rbp)
        cpuinfo->init();
    43a0:	48 8b 7d 98          	mov    -0x68(%rbp),%rdi
    43a4:	e8 77 19 01 00       	call   15d20 <_ZN4arch10X86CpuInfo4initEv>
    }
    43a9:	48 83 c4 70          	add    $0x70,%rsp
    43ad:	5d                   	pop    %rbp
    43ae:	c3                   	ret
    43af:	90                   	nop

00000000000043b0 <__cxx_global_var_init>:
    43b0:	55                   	push   %rbp
    43b1:	48 89 e5             	mov    %rsp,%rbp
    static arch::X86CpuInfo g_x86_cpu_info;
    43b4:	48 8d 3d cd f4 02 00 	lea    0x2f4cd(%rip),%rdi        # 33888 <_ZN4oursL14g_x86_cpu_infoE>
    43bb:	e8 20 00 00 00       	call   43e0 <_ZN4arch10X86CpuInfoC2Ev>
    43c0:	5d                   	pop    %rbp
    43c1:	c3                   	ret
    43c2:	66 66 66 66 66 2e 0f 	data16 data16 data16 data16 cs nopw 0x0(%rax,%rax,1)
    43c9:	1f 84 00 00 00 00 00 

00000000000043d0 <_GLOBAL__sub_I_feature.cpp>:
    43d0:	55                   	push   %rbp
    43d1:	48 89 e5             	mov    %rsp,%rbp
    43d4:	e8 d7 ff ff ff       	call   43b0 <__cxx_global_var_init>
    43d9:	5d                   	pop    %rbp
    43da:	c3                   	ret
    43db:	0f 1f 44 00 00       	nopl   0x0(%rax,%rax,1)

00000000000043e0 <_ZN4arch10X86CpuInfoC2Ev>:
    struct X86CpuInfo {
    43e0:	55                   	push   %rbp
    43e1:	48 89 e5             	mov    %rsp,%rbp
    43e4:	48 83 ec 10          	sub    $0x10,%rsp
    43e8:	48 89 7d f0          	mov    %rdi,-0x10(%rbp)
    43ec:	48 8b 45 f0          	mov    -0x10(%rbp),%rax
    43f0:	48 83 c0 38          	add    $0x38,%rax
    43f4:	48 89 45 f8          	mov    %rax,-0x8(%rbp)
    43f8:	48 8b 7d f8          	mov    -0x8(%rbp),%rdi
            : features_()
    43fc:	e8 0f 00 00 00       	call   4410 <_ZNSt3__16bitsetILm187EEC2B8nn210000Ev>
    4401:	48 83 c4 10          	add    $0x10,%rsp
    4405:	5d                   	pop    %rbp
    4406:	c3                   	ret
    4407:	66 0f 1f 84 00 00 00 	nopw   0x0(%rax,%rax,1)
    440e:	00 00 

0000000000004410 <_ZNSt3__16bitsetILm187EEC2B8nn210000Ev>:
  _LIBCPP_HIDE_FROM_ABI _LIBCPP_CONSTEXPR bitset() _NOEXCEPT {}
    4410:	55                   	push   %rbp
    4411:	48 89 e5             	mov    %rsp,%rbp
    4414:	48 83 ec 10          	sub    $0x10,%rsp
    4418:	48 89 7d f8          	mov    %rdi,-0x8(%rbp)
    441c:	48 8b 7d f8          	mov    -0x8(%rbp),%rdi
    4420:	e8 0b 00 00 00       	call   4430 <_ZNSt3__18__bitsetILm3ELm187EEC2Ev>
    4425:	48 83 c4 10          	add    $0x10,%rsp
    4429:	5d                   	pop    %rbp
    442a:	c3                   	ret
    442b:	0f 1f 44 00 00       	nopl   0x0(%rax,%rax,1)

0000000000004430 <_ZNSt3__18__bitsetILm3ELm187EEC2Ev>:
{
    4430:	55                   	push   %rbp
    4431:	48 89 e5             	mov    %rsp,%rbp
    4434:	48 89 7d f8          	mov    %rdi,-0x8(%rbp)
    4438:	48 8b 45 f8          	mov    -0x8(%rbp),%rax
    : __first_{0}
    443c:	31 c9                	xor    %ecx,%ecx
    443e:	48 c7 40 10 00 00 00 	movq   $0x0,0x10(%rax)
    4445:	00 
    4446:	48 c7 40 08 00 00 00 	movq   $0x0,0x8(%rax)
    444d:	00 
    444e:	48 c7 00 00 00 00 00 	movq   $0x0,(%rax)
}
    4455:	5d                   	pop    %rbp
    4456:	c3                   	ret
    4457:	66 0f 1f 84 00 00 00 	nopw   0x0(%rax,%rax,1)
    445e:	00 00 

0000000000004460 <_ZNKSt3__16bitsetILm187EE4testB8nn210000Em>:
_LIBCPP_HIDE_FROM_ABI _LIBCPP_CONSTEXPR_SINCE_CXX23 bool bitset<_Size>::test(size_t __pos) const {
    4460:	55                   	push   %rbp
    4461:	48 89 e5             	mov    %rsp,%rbp
    4464:	48 83 ec 30          	sub    $0x30,%rsp
    4468:	48 89 7d f8          	mov    %rdi,-0x8(%rbp)
    446c:	48 89 75 f0          	mov    %rsi,-0x10(%rbp)
    4470:	48 8b 45 f8          	mov    -0x8(%rbp),%rax
    4474:	48 89 45 d8          	mov    %rax,-0x28(%rbp)
  if (__pos >= _Size)
    4478:	48 81 7d f0 bb 00 00 	cmpq   $0xbb,-0x10(%rbp)
    447f:	00 
    4480:	72 0c                	jb     448e <_ZNKSt3__16bitsetILm187EE4testB8nn210000Em+0x2e>
    std::__throw_out_of_range("bitset test argument out of range");
    4482:	48 8d 3d 93 a9 02 00 	lea    0x2a993(%rip),%rdi        # 2ee1c <.L.str.1>
    4489:	e8 42 f3 ff ff       	call   37d0 <_ZNSt3__120__throw_out_of_rangeB8nn210000EPKc>
    448e:	48 8b 7d d8          	mov    -0x28(%rbp),%rdi
  return (*this)[__pos];
    4492:	48 8b 75 f0          	mov    -0x10(%rbp),%rsi
    4496:	e8 25 00 00 00       	call   44c0 <_ZNKSt3__16bitsetILm187EEixB8nn210000Em>
    449b:	48 89 45 e0          	mov    %rax,-0x20(%rbp)
    449f:	48 89 55 e8          	mov    %rdx,-0x18(%rbp)
    44a3:	48 8d 7d e0          	lea    -0x20(%rbp),%rdi
    44a7:	e8 54 00 00 00       	call   4500 <_ZNKSt3__121__bit_const_referenceINS_8__bitsetILm3ELm187EEEEcvbB8nn210000Ev>
    44ac:	24 01                	and    $0x1,%al
    44ae:	48 83 c4 30          	add    $0x30,%rsp
    44b2:	5d                   	pop    %rbp
    44b3:	c3                   	ret
    44b4:	66 2e 0f 1f 84 00 00 	cs nopw 0x0(%rax,%rax,1)
    44bb:	00 00 00 
    44be:	66 90                	xchg   %ax,%ax

00000000000044c0 <_ZNKSt3__16bitsetILm187EEixB8nn210000Em>:
  _LIBCPP_HIDE_FROM_ABI _LIBCPP_CONSTEXPR __const_reference operator[](size_t __p) const {
    44c0:	55                   	push   %rbp
    44c1:	48 89 e5             	mov    %rsp,%rbp
    44c4:	48 83 ec 20          	sub    $0x20,%rsp
    44c8:	48 89 7d e8          	mov    %rdi,-0x18(%rbp)
    44cc:	48 89 75 e0          	mov    %rsi,-0x20(%rbp)
    44d0:	48 8b 7d e8          	mov    -0x18(%rbp),%rdi
    return __base::__make_ref(__p);
    44d4:	48 8b 75 e0          	mov    -0x20(%rbp),%rsi
    44d8:	e8 53 00 00 00       	call   4530 <_ZNKSt3__18__bitsetILm3ELm187EE10__make_refB8nn210000Em>
    44dd:	48 89 45 f0          	mov    %rax,-0x10(%rbp)
    44e1:	48 89 55 f8          	mov    %rdx,-0x8(%rbp)
    44e5:	48 8b 45 f0          	mov    -0x10(%rbp),%rax
    44e9:	48 8b 55 f8          	mov    -0x8(%rbp),%rdx
    44ed:	48 83 c4 20          	add    $0x20,%rsp
    44f1:	5d                   	pop    %rbp
    44f2:	c3                   	ret
    44f3:	66 2e 0f 1f 84 00 00 	cs nopw 0x0(%rax,%rax,1)
    44fa:	00 00 00 
    44fd:	0f 1f 00             	nopl   (%rax)

0000000000004500 <_ZNKSt3__121__bit_const_referenceINS_8__bitsetILm3ELm187EEEEcvbB8nn210000Ev>:
  _LIBCPP_HIDE_FROM_ABI _LIBCPP_CONSTEXPR operator bool() const _NOEXCEPT {
    4500:	55                   	push   %rbp
    4501:	48 89 e5             	mov    %rsp,%rbp
    4504:	48 89 7d f8          	mov    %rdi,-0x8(%rbp)
    4508:	48 8b 4d f8          	mov    -0x8(%rbp),%rcx
    return static_cast<bool>(*__seg_ & __mask_);
    450c:	48 8b 01             	mov    (%rcx),%rax
    450f:	48 8b 00             	mov    (%rax),%rax
    4512:	48 23 41 08          	and    0x8(%rcx),%rax
    4516:	48 83 f8 00          	cmp    $0x0,%rax
    451a:	0f 95 c0             	setne  %al
    451d:	24 01                	and    $0x1,%al
    451f:	5d                   	pop    %rbp
    4520:	c3                   	ret
    4521:	66 2e 0f 1f 84 00 00 	cs nopw 0x0(%rax,%rax,1)
    4528:	00 00 00 
    452b:	0f 1f 44 00 00       	nopl   0x0(%rax,%rax,1)

0000000000004530 <_ZNKSt3__18__bitsetILm3ELm187EE10__make_refB8nn210000Em>:
  _LIBCPP_HIDE_FROM_ABI _LIBCPP_CONSTEXPR __const_reference __make_ref(size_t __pos) const _NOEXCEPT {
    4530:	55                   	push   %rbp
    4531:	48 89 e5             	mov    %rsp,%rbp
    4534:	48 83 ec 20          	sub    $0x20,%rsp
    4538:	48 89 7d e8          	mov    %rdi,-0x18(%rbp)
    453c:	48 89 75 e0          	mov    %rsi,-0x20(%rbp)
    4540:	48 8b 4d e8          	mov    -0x18(%rbp),%rcx
    return __const_reference(__first_ + __pos / __bits_per_word, __storage_type(1) << __pos % __bits_per_word);
    4544:	48 8b 45 e0          	mov    -0x20(%rbp),%rax
    4548:	48 89 c2             	mov    %rax,%rdx
    454b:	48 c1 ea 06          	shr    $0x6,%rdx
    454f:	48 8d 34 d1          	lea    (%rcx,%rdx,8),%rsi
    4553:	88 c1                	mov    %al,%cl
    4555:	ba 01 00 00 00       	mov    $0x1,%edx
    455a:	48 d3 e2             	shl    %cl,%rdx
    455d:	48 8d 7d f0          	lea    -0x10(%rbp),%rdi
    4561:	e8 1a 00 00 00       	call   4580 <_ZNSt3__121__bit_const_referenceINS_8__bitsetILm3ELm187EEEEC2B8nn210000EPKmm>
    4566:	48 8b 45 f0          	mov    -0x10(%rbp),%rax
    456a:	48 8b 55 f8          	mov    -0x8(%rbp),%rdx
    456e:	48 83 c4 20          	add    $0x20,%rsp
    4572:	5d                   	pop    %rbp
    4573:	c3                   	ret
    4574:	66 2e 0f 1f 84 00 00 	cs nopw 0x0(%rax,%rax,1)
    457b:	00 00 00 
    457e:	66 90                	xchg   %ax,%ax

0000000000004580 <_ZNSt3__121__bit_const_referenceINS_8__bitsetILm3ELm187EEEEC2B8nn210000EPKmm>:
        __mask_(__m) {}
    4580:	55                   	push   %rbp
    4581:	48 89 e5             	mov    %rsp,%rbp
    4584:	48 89 7d f8          	mov    %rdi,-0x8(%rbp)
    4588:	48 89 75 f0          	mov    %rsi,-0x10(%rbp)
    458c:	48 89 55 e8          	mov    %rdx,-0x18(%rbp)
    4590:	48 8b 45 f8          	mov    -0x8(%rbp),%rax
      : __seg_(__s),
    4594:	48 8b 4d f0          	mov    -0x10(%rbp),%rcx
    4598:	48 89 08             	mov    %rcx,(%rax)
        __mask_(__m) {}
    459b:	48 8b 4d e8          	mov    -0x18(%rbp),%rcx
    459f:	48 89 48 08          	mov    %rcx,0x8(%rax)
    45a3:	5d                   	pop    %rbp
    45a4:	c3                   	ret
    45a5:	66 2e 0f 1f 84 00 00 	cs nopw 0x0(%rax,%rax,1)
    45ac:	00 00 00 
    45af:	90                   	nop

00000000000045b0 <_ZN4ours16arch_current_cpuEv>:
#include <ours/arch/cpu.hpp>

namespace ours {
    auto arch_current_cpu() -> CpuNum {  
    45b0:	55                   	push   %rbp
    45b1:	48 89 e5             	mov    %rsp,%rbp
        return 0; 
    45b4:	31 c0                	xor    %eax,%eax
    45b6:	5d                   	pop    %rbp
    45b7:	c3                   	ret
    45b8:	0f 1f 84 00 00 00 00 	nopl   0x0(%rax,%rax,1)
    45bf:	00 

00000000000045c0 <_ZN4ours17arch_activate_cpuEj>:
    }

    auto arch_activate_cpu(CpuNum) -> Status {  
    45c0:	55                   	push   %rbp
    45c1:	48 89 e5             	mov    %rsp,%rbp
    45c4:	89 7d fc             	mov    %edi,-0x4(%rbp)
        return Status::Unimplemented;
    45c7:	b8 05 00 00 00       	mov    $0x5,%eax
    45cc:	5d                   	pop    %rbp
    45cd:	c3                   	ret
    45ce:	66 90                	xchg   %ax,%ax

00000000000045d0 <_ZN4ours19arch_deactivate_cpuEj>:
    }

    auto arch_deactivate_cpu(CpuNum) -> Status {  
    45d0:	55                   	push   %rbp
    45d1:	48 89 e5             	mov    %rsp,%rbp
    45d4:	89 7d fc             	mov    %edi,-0x4(%rbp)
        return Status::Unimplemented; 
    45d7:	b8 05 00 00 00       	mov    $0x5,%eax
    45dc:	5d                   	pop    %rbp
    45dd:	c3                   	ret
    45de:	66 90                	xchg   %ax,%ax

00000000000045e0 <_ZN4ours16x86_setup_percpuEj>:
    }

    auto x86_setup_percpu(CpuNum cpunum) -> void {
    45e0:	55                   	push   %rbp
    45e1:	48 89 e5             	mov    %rsp,%rbp
    45e4:	89 7d fc             	mov    %edi,-0x4(%rbp)

    }
    45e7:	5d                   	pop    %rbp
    45e8:	c3                   	ret
    45e9:	0f 1f 80 00 00 00 00 	nopl   0x0(%rax)

00000000000045f0 <_ZNSt3__16bitsetILm32EE3setB8nn210000Emb>:
_LIBCPP_HIDE_FROM_ABI _LIBCPP_CONSTEXPR_SINCE_CXX23 bitset<_Size>& bitset<_Size>::set(size_t __pos, bool __val) {
    45f0:	55                   	push   %rbp
    45f1:	48 89 e5             	mov    %rsp,%rbp
    45f4:	48 83 ec 40          	sub    $0x40,%rsp
    45f8:	88 d0                	mov    %dl,%al
    45fa:	48 89 7d f8          	mov    %rdi,-0x8(%rbp)
    45fe:	48 89 75 f0          	mov    %rsi,-0x10(%rbp)
    4602:	24 01                	and    $0x1,%al
    4604:	88 45 ef             	mov    %al,-0x11(%rbp)
    4607:	48 8b 45 f8          	mov    -0x8(%rbp),%rax
    460b:	48 89 45 d0          	mov    %rax,-0x30(%rbp)
  if (__pos >= _Size)
    460f:	48 83 7d f0 20       	cmpq   $0x20,-0x10(%rbp)
    4614:	72 0c                	jb     4622 <_ZNSt3__16bitsetILm32EE3setB8nn210000Emb+0x32>
    std::__throw_out_of_range("bitset set argument out of range");
    4616:	48 8d 3d 7a a8 02 00 	lea    0x2a87a(%rip),%rdi        # 2ee97 <.L.str.2>
    461d:	e8 ae f1 ff ff       	call   37d0 <_ZNSt3__120__throw_out_of_rangeB8nn210000EPKc>
    4622:	48 8b 7d d0          	mov    -0x30(%rbp),%rdi
  (*this)[__pos] = __val;
    4626:	8a 45 ef             	mov    -0x11(%rbp),%al
    4629:	88 45 cf             	mov    %al,-0x31(%rbp)
    462c:	48 8b 75 f0          	mov    -0x10(%rbp),%rsi
    4630:	e8 2b 00 00 00       	call   4660 <_ZNSt3__16bitsetILm32EEixB8nn210000Em>
    4635:	48 89 c1             	mov    %rax,%rcx
    4638:	8a 45 cf             	mov    -0x31(%rbp),%al
    463b:	48 89 4d d8          	mov    %rcx,-0x28(%rbp)
    463f:	48 89 55 e0          	mov    %rdx,-0x20(%rbp)
    4643:	0f b6 f0             	movzbl %al,%esi
    4646:	83 e6 01             	and    $0x1,%esi
    4649:	48 8d 7d d8          	lea    -0x28(%rbp),%rdi
    464d:	e8 4e 00 00 00       	call   46a0 <_ZNSt3__115__bit_referenceINS_8__bitsetILm1ELm32EEELb1EEaSB8nn210000Eb>
    4652:	48 8b 45 d0          	mov    -0x30(%rbp),%rax
  return *this;
    4656:	48 83 c4 40          	add    $0x40,%rsp
    465a:	5d                   	pop    %rbp
    465b:	c3                   	ret
    465c:	0f 1f 40 00          	nopl   0x0(%rax)

0000000000004660 <_ZNSt3__16bitsetILm32EEixB8nn210000Em>:
  _LIBCPP_HIDE_FROM_ABI _LIBCPP_CONSTEXPR_SINCE_CXX23 reference operator[](size_t __p) {
    4660:	55                   	push   %rbp
    4661:	48 89 e5             	mov    %rsp,%rbp
    4664:	48 83 ec 20          	sub    $0x20,%rsp
    4668:	48 89 7d e8          	mov    %rdi,-0x18(%rbp)
    466c:	48 89 75 e0          	mov    %rsi,-0x20(%rbp)
    4670:	48 8b 7d e8          	mov    -0x18(%rbp),%rdi
    return __base::__make_ref(__p);
    4674:	48 8b 75 e0          	mov    -0x20(%rbp),%rsi
    4678:	e8 73 00 00 00       	call   46f0 <_ZNSt3__18__bitsetILm1ELm32EE10__make_refB8nn210000Em>
    467d:	48 89 45 f0          	mov    %rax,-0x10(%rbp)
    4681:	48 89 55 f8          	mov    %rdx,-0x8(%rbp)
    4685:	48 8b 45 f0          	mov    -0x10(%rbp),%rax
    4689:	48 8b 55 f8          	mov    -0x8(%rbp),%rdx
    468d:	48 83 c4 20          	add    $0x20,%rsp
    4691:	5d                   	pop    %rbp
    4692:	c3                   	ret
    4693:	66 2e 0f 1f 84 00 00 	cs nopw 0x0(%rax,%rax,1)
    469a:	00 00 00 
    469d:	0f 1f 00             	nopl   (%rax)

00000000000046a0 <_ZNSt3__115__bit_referenceINS_8__bitsetILm1ELm32EEELb1EEaSB8nn210000Eb>:
  _LIBCPP_HIDE_FROM_ABI _LIBCPP_CONSTEXPR_SINCE_CXX20 __bit_reference& operator=(bool __x) _NOEXCEPT {
    46a0:	55                   	push   %rbp
    46a1:	48 89 e5             	mov    %rsp,%rbp
    46a4:	40 88 f0             	mov    %sil,%al
    46a7:	48 89 7d f8          	mov    %rdi,-0x8(%rbp)
    46ab:	24 01                	and    $0x1,%al
    46ad:	88 45 f7             	mov    %al,-0x9(%rbp)
    46b0:	48 8b 45 f8          	mov    -0x8(%rbp),%rax
    46b4:	48 89 45 e8          	mov    %rax,-0x18(%rbp)
    if (__x)
    46b8:	f6 45 f7 01          	testb  $0x1,-0x9(%rbp)
    46bc:	74 13                	je     46d1 <_ZNSt3__115__bit_referenceINS_8__bitsetILm1ELm32EEELb1EEaSB8nn210000Eb+0x31>
    46be:	48 8b 45 e8          	mov    -0x18(%rbp),%rax
      *__seg_ |= __mask_;
    46c2:	48 8b 48 08          	mov    0x8(%rax),%rcx
    46c6:	48 8b 00             	mov    (%rax),%rax
    46c9:	48 0b 08             	or     (%rax),%rcx
    46cc:	48 89 08             	mov    %rcx,(%rax)
    46cf:	eb 15                	jmp    46e6 <_ZNSt3__115__bit_referenceINS_8__bitsetILm1ELm32EEELb1EEaSB8nn210000Eb+0x46>
    46d1:	48 8b 45 e8          	mov    -0x18(%rbp),%rax
      *__seg_ &= ~__mask_;
    46d5:	48 8b 48 08          	mov    0x8(%rax),%rcx
    46d9:	48 83 f1 ff          	xor    $0xffffffffffffffff,%rcx
    46dd:	48 8b 00             	mov    (%rax),%rax
    46e0:	48 23 08             	and    (%rax),%rcx
    46e3:	48 89 08             	mov    %rcx,(%rax)
    46e6:	48 8b 45 e8          	mov    -0x18(%rbp),%rax
    return *this;
    46ea:	5d                   	pop    %rbp
    46eb:	c3                   	ret
    46ec:	0f 1f 40 00          	nopl   0x0(%rax)

00000000000046f0 <_ZNSt3__18__bitsetILm1ELm32EE10__make_refB8nn210000Em>:
  _LIBCPP_HIDE_FROM_ABI _LIBCPP_CONSTEXPR_SINCE_CXX23 reference __make_ref(size_t __pos) _NOEXCEPT {
    46f0:	55                   	push   %rbp
    46f1:	48 89 e5             	mov    %rsp,%rbp
    46f4:	48 83 ec 20          	sub    $0x20,%rsp
    46f8:	48 89 7d e8          	mov    %rdi,-0x18(%rbp)
    46fc:	48 89 75 e0          	mov    %rsi,-0x20(%rbp)
    4700:	48 8b 75 e8          	mov    -0x18(%rbp),%rsi
    return reference(&__first_, __storage_type(1) << __pos);
    4704:	8a 4d e0             	mov    -0x20(%rbp),%cl
    4707:	ba 01 00 00 00       	mov    $0x1,%edx
    470c:	48 d3 e2             	shl    %cl,%rdx
    470f:	48 8d 7d f0          	lea    -0x10(%rbp),%rdi
    4713:	e8 18 00 00 00       	call   4730 <_ZNSt3__115__bit_referenceINS_8__bitsetILm1ELm32EEELb1EEC2B8nn210000EPmm>
    4718:	48 8b 45 f0          	mov    -0x10(%rbp),%rax
    471c:	48 8b 55 f8          	mov    -0x8(%rbp),%rdx
    4720:	48 83 c4 20          	add    $0x20,%rsp
    4724:	5d                   	pop    %rbp
    4725:	c3                   	ret
    4726:	66 2e 0f 1f 84 00 00 	cs nopw 0x0(%rax,%rax,1)
    472d:	00 00 00 

0000000000004730 <_ZNSt3__115__bit_referenceINS_8__bitsetILm1ELm32EEELb1EEC2B8nn210000EPmm>:
        __mask_(__m) {}
    4730:	55                   	push   %rbp
    4731:	48 89 e5             	mov    %rsp,%rbp
    4734:	48 89 7d f8          	mov    %rdi,-0x8(%rbp)
    4738:	48 89 75 f0          	mov    %rsi,-0x10(%rbp)
    473c:	48 89 55 e8          	mov    %rdx,-0x18(%rbp)
    4740:	48 8b 45 f8          	mov    -0x8(%rbp),%rax
      : __seg_(__s),
    4744:	48 8b 4d f0          	mov    -0x10(%rbp),%rcx
    4748:	48 89 08             	mov    %rcx,(%rax)
        __mask_(__m) {}
    474b:	48 8b 4d e8          	mov    -0x18(%rbp),%rcx
    474f:	48 89 48 08          	mov    %rcx,0x8(%rax)
    4753:	5d                   	pop    %rbp
    4754:	c3                   	ret
    4755:	66 2e 0f 1f 84 00 00 	cs nopw 0x0(%rax,%rax,1)
    475c:	00 00 00 
    475f:	90                   	nop

0000000000004760 <_ZN4ours25x86_tlb_global_invalidateEv>:
    using arch::Cr0;
    using arch::Cr4;
    using arch::MsrIo;
    using arch::MsrRegAddr;

    auto x86_tlb_global_invalidate() -> void {
    4760:	55                   	push   %rbp
    4761:	48 89 e5             	mov    %rsp,%rbp
    4764:	48 83 ec 70          	sub    $0x70,%rsp
    4768:	bf 4a 00 00 00       	mov    $0x4a,%edi
        if (x86_has_feature(CpuFeatureType::InvPcid)) {
    476d:	e8 5e fa ff ff       	call   41d0 <_ZN4ours15x86_has_featureEN4arch14CpuFeatureTypeE>
    4772:	a8 01                	test   $0x1,%al
    4774:	75 02                	jne    4778 <_ZN4ours25x86_tlb_global_invalidateEv+0x18>
    4776:	eb 2f                	jmp    47a7 <_ZN4ours25x86_tlb_global_invalidateEv+0x47>
        x86_invpcid({pcid, 0}, InvPcidCmd::Single);
    }

    FORCE_INLINE
    static auto x86_invpcid_all() -> void {
        x86_invpcid({0, 0}, InvPcidCmd::All);
    4778:	48 c7 45 98 00 00 00 	movq   $0x0,-0x68(%rbp)
    477f:	00 
    4780:	48 c7 45 a0 00 00 00 	movq   $0x0,-0x60(%rbp)
    4787:	00 
    4788:	48 8d 45 98          	lea    -0x68(%rbp),%rax
    478c:	48 89 45 e0          	mov    %rax,-0x20(%rbp)
    4790:	48 c7 45 d8 02 00 00 	movq   $0x2,-0x28(%rbp)
    4797:	00 
        asm ("invpcid %0, %1" :: "m"(request), "r"(cmd) : "memory");
    4798:	48 8b 45 e0          	mov    -0x20(%rbp),%rax
    479c:	48 8b 4d d8          	mov    -0x28(%rbp),%rcx
    47a0:	66 0f 38 82 08       	invpcid (%rax),%rcx
            return arch::x86_invpcid_all();
    47a5:	eb 56                	jmp    47fd <_ZN4ours25x86_tlb_global_invalidateEv+0x9d>
        enum RegisterBits { PageTableAddress, };
        typedef TypeList<Field<Id<PageTableAddress>, Bits<ustl::NumericLimits<PhysAddr>::DIGITS>>>
            FieldList;
    };
    struct Cr3: public SysReg<Cr3> { typedef SysReg<Cr3> Base; using Base::Base; };
    X86_IMPL_SYSREG(Cr3, "cr3");
    47a7:	0f 20 d8             	mov    %cr3,%rax
    47aa:	48 89 45 c8          	mov    %rax,-0x38(%rbp)
    47ae:	48 8b 45 c8          	mov    -0x38(%rbp),%rax
    47b2:	48 89 45 b0          	mov    %rax,-0x50(%rbp)
    47b6:	48 8d 45 b0          	lea    -0x50(%rbp),%rax
    47ba:	48 89 45 b8          	mov    %rax,-0x48(%rbp)
    47be:	48 c7 45 c0 01 00 00 	movq   $0x1,-0x40(%rbp)
    47c5:	00 
    47c6:	48 8d 7d d0          	lea    -0x30(%rbp),%rdi
    47ca:	48 8d 75 b8          	lea    -0x48(%rbp),%rsi
    47ce:	e8 cd 10 00 00       	call   58a0 <_ZN4arch3Cr3CI2N4ustl9bitfields13BitFieldsImplImNS1_8TypeListIJNS2_13FieldMetaDataImLi0ELi0ELi64EmXtlNS1_4util11FixedStringILm10EEEtlA10_cLc65ELc110ELc111ELc110ELc121ELc109ELc111ELc117ELc115EEEELb1EEEEEEEEERKSt16initializer_listImE>
    47d3:	48 8b 45 d0          	mov    -0x30(%rbp),%rax
        Cr3::read().write();
    47d7:	48 89 45 a8          	mov    %rax,-0x58(%rbp)
    47db:	48 8d 45 a8          	lea    -0x58(%rbp),%rax
    47df:	48 89 45 f0          	mov    %rax,-0x10(%rbp)
    47e3:	48 8b 45 f0          	mov    -0x10(%rbp),%rax
            return static_cast<Self &>(this->Base::template set<I>(val));
        }

        FORCE_INLINE USTL_CONSTEXPR
        auto write() -> Self & {
            Self::write(*static_cast<Derived const *>(this));
    47e7:	48 8b 00             	mov    (%rax),%rax
    47ea:	48 89 45 e8          	mov    %rax,-0x18(%rbp)
    47ee:	48 8b 45 e8          	mov    -0x18(%rbp),%rax
    47f2:	48 89 45 f8          	mov    %rax,-0x8(%rbp)
    47f6:	48 8b 45 f8          	mov    -0x8(%rbp),%rax
    47fa:	0f 22 d8             	mov    %rax,%cr3
        }

        arch::tlb_invalidate_all();
    }
    47fd:	48 83 c4 70          	add    $0x70,%rsp
    4801:	5d                   	pop    %rbp
    4802:	c3                   	ret
    4803:	66 66 66 66 2e 0f 1f 	data16 data16 data16 cs nopw 0x0(%rax,%rax,1)
    480a:	84 00 00 00 00 00 

0000000000004810 <_ZN4ours20x86_setup_mmu_percpuEv>:

    auto x86_setup_mmu_percpu() -> void {
    4810:	55                   	push   %rbp
    4811:	48 89 e5             	mov    %rsp,%rbp
    4814:	48 81 ec e0 02 00 00 	sub    $0x2e0,%rsp
    X86_IMPL_SYSREG(Cr0, "cr0");
    481b:	0f 20 c0             	mov    %cr0,%rax
    481e:	48 89 85 68 fd ff ff 	mov    %rax,-0x298(%rbp)
    4825:	48 8b 85 68 fd ff ff 	mov    -0x298(%rbp),%rax
    482c:	48 89 85 50 fd ff ff 	mov    %rax,-0x2b0(%rbp)
    4833:	48 8d 85 50 fd ff ff 	lea    -0x2b0(%rbp),%rax
    483a:	48 89 85 58 fd ff ff 	mov    %rax,-0x2a8(%rbp)
    4841:	48 c7 85 60 fd ff ff 	movq   $0x1,-0x2a0(%rbp)
    4848:	01 00 00 00 
    484c:	48 8d bd 70 fd ff ff 	lea    -0x290(%rbp),%rdi
    4853:	48 8d b5 58 fd ff ff 	lea    -0x2a8(%rbp),%rsi
    485a:	e8 e1 06 00 00       	call   4f40 <_ZN4arch6SysRegINS_3Cr0EECI2N4ustl9bitfields13BitFieldsImplImNS3_8TypeListIJNS4_13FieldMetaDataImLi0ELi0ELi1EmXtlNS3_4util11FixedStringILm4EEEtlA4_cLc120ELc56ELc55EEEELb1EEENS7_ImLi1ELi1ELi1EmXtlSA_tlSB_Lc83ELc115ELc101EEEELb1EEENS7_ImLi2ELi2ELi1EmXtlSA_tlSB_Lc65ELc118ELc120EEEELb1EEENS7_ImLi3ELi3ELi1EmXtlNS9_ILm7EEEtlA7_cLc66ELc110ELc100ELc82ELc101ELc103EEEELb1EEENS7_ImLi4ELi4ELi1EmXtlSF_tlSG_Lc66ELc110ELc100ELc67ELc115ELc114EEEELb1EEENS7_ImLi5ELi5ELi1EmXtlSF_tlSG_Lc79ELc112ELc77ELc97ELc115ELc107EEEELb1EEENS7_ImLi6ELi16ELi1EmXtlNS9_ILm9EEEtlA9_cLc90ELc109ELc109ELc72ELc105ELc50ELc53ELc54EEEELb1EEENS7_ImLi7ELi18ELi1EmXtlNS9_ILm8EEEtlA8_cLc72ELc105ELc49ELc54ELc90ELc109ELc109EEEELb1EEENS7_ImLi8ELi29ELi1EmXtlNS9_ILm3EEEtlA3_cLc80ELc48EEEELb1EEENS7_ImLi9ELi30ELi1EmXtlNS9_ILm5EEEtlA5_cLc80ELc107ELc114ELc117EEEELb1EEENS7_ImLi10ELi31ELi1EmXtlST_tlSU_Lc80ELc107ELc114ELc117EEEELb1EEEEEEEEERKSt16initializer_listImE>
    485f:	48 8b 85 70 fd ff ff 	mov    -0x290(%rbp),%rax
        Cr0::read().set<Cr0::Wp>(1)  // Enable Write protect.
    4866:	48 89 85 48 fd ff ff 	mov    %rax,-0x2b8(%rbp)
    486d:	48 8d 85 48 fd ff ff 	lea    -0x2b8(%rbp),%rax
    4874:	48 89 85 88 fd ff ff 	mov    %rax,-0x278(%rbp)
    487b:	c7 85 84 fd ff ff 01 	movl   $0x1,-0x27c(%rbp)
    4882:	00 00 00 
    4885:	48 8b 85 88 fd ff ff 	mov    -0x278(%rbp),%rax
            return static_cast<Self &>(this->Base::template set<I>(val));
    488c:	48 63 8d 84 fd ff ff 	movslq -0x27c(%rbp),%rcx
    4893:	48 89 8d 78 fd ff ff 	mov    %rcx,-0x288(%rbp)
    489a:	48 89 85 70 fe ff ff 	mov    %rax,-0x190(%rbp)
    48a1:	48 8d 85 78 fd ff ff 	lea    -0x288(%rbp),%rax
    48a8:	48 89 85 68 fe ff ff 	mov    %rax,-0x198(%rbp)
    48af:	48 8b 85 70 fe ff ff 	mov    -0x190(%rbp),%rax
        }

        template<usize Id>
        USTL_FORCEINLINE USTL_CONSTEXPR
        auto set(ValueTypeOf<Id> const &value) USTL_NOEXCEPT -> Self & {
            priv_set<Id>(value, traits::BoolConstant<IsFieldEnabledV<Id>>());
    48b6:	48 8b 8d 68 fe ff ff 	mov    -0x198(%rbp),%rcx
    48bd:	48 89 85 98 fe ff ff 	mov    %rax,-0x168(%rbp)
    48c4:	48 89 8d 90 fe ff ff 	mov    %rcx,-0x170(%rbp)
    48cb:	48 8b 8d 98 fe ff ff 	mov    -0x168(%rbp),%rcx
        template<usize Id>
        USTL_FORCEINLINE USTL_CONSTEXPR
        auto priv_set(ValueTypeOf<Id> const &value, traits::TrueType) USTL_NOEXCEPT -> void {
            // Defining the variables is just to observe their value. Usually them will
            // be optimized out. So don't worry that them occupy the statck space.
            USTL_CONSTEXPR usize const idx = GetFieldT<FieldList, Id>::UNIT;
    48d2:	48 c7 85 88 fe ff ff 	movq   $0x0,-0x178(%rbp)
    48d9:	00 00 00 00 
            USTL_CONSTEXPR usize const mask = GetFieldT<FieldList, Id>::MASK;
    48dd:	48 c7 85 80 fe ff ff 	movq   $0x10000,-0x180(%rbp)
    48e4:	00 00 01 00 
            USTL_CONSTEXPR usize const shift = GetFieldT<FieldList, Id>::SHIFT;
    48e8:	48 c7 85 78 fe ff ff 	movq   $0x10,-0x188(%rbp)
    48ef:	10 00 00 00 

            values[idx] &= ~mask;
    48f3:	48 8b 11             	mov    (%rcx),%rdx
    48f6:	48 81 e2 ff ff fe ff 	and    $0xfffffffffffeffff,%rdx
    48fd:	48 89 11             	mov    %rdx,(%rcx)
            values[idx] |= usize(value) << shift;
    4900:	48 8b 95 90 fe ff ff 	mov    -0x170(%rbp),%rdx
    4907:	48 8b 12             	mov    (%rdx),%rdx
    490a:	48 c1 e2 10          	shl    $0x10,%rdx
    490e:	48 0b 11             	or     (%rcx),%rdx
    4911:	48 89 11             	mov    %rdx,(%rcx)
    4914:	48 89 85 a0 fd ff ff 	mov    %rax,-0x260(%rbp)
    491b:	c7 85 9c fd ff ff 00 	movl   $0x0,-0x264(%rbp)
    4922:	00 00 00 
    4925:	48 8b 85 a0 fd ff ff 	mov    -0x260(%rbp),%rax
    492c:	48 63 8d 9c fd ff ff 	movslq -0x264(%rbp),%rcx
    4933:	48 89 8d 90 fd ff ff 	mov    %rcx,-0x270(%rbp)
    493a:	48 89 85 a8 fe ff ff 	mov    %rax,-0x158(%rbp)
    4941:	48 8d 85 90 fd ff ff 	lea    -0x270(%rbp),%rax
    4948:	48 89 85 a0 fe ff ff 	mov    %rax,-0x160(%rbp)
    494f:	48 8b 85 a8 fe ff ff 	mov    -0x158(%rbp),%rax
            priv_set<Id>(value, traits::BoolConstant<IsFieldEnabledV<Id>>());
    4956:	48 8b 8d a0 fe ff ff 	mov    -0x160(%rbp),%rcx
    495d:	48 89 85 d0 fe ff ff 	mov    %rax,-0x130(%rbp)
    4964:	48 89 8d c8 fe ff ff 	mov    %rcx,-0x138(%rbp)
    496b:	48 8b 8d d0 fe ff ff 	mov    -0x130(%rbp),%rcx
            USTL_CONSTEXPR usize const idx = GetFieldT<FieldList, Id>::UNIT;
    4972:	48 c7 85 c0 fe ff ff 	movq   $0x0,-0x140(%rbp)
    4979:	00 00 00 00 
            USTL_CONSTEXPR usize const mask = GetFieldT<FieldList, Id>::MASK;
    497d:	48 c7 85 b8 fe ff ff 	movq   $0x20000000,-0x148(%rbp)
    4984:	00 00 00 20 
            USTL_CONSTEXPR usize const shift = GetFieldT<FieldList, Id>::SHIFT;
    4988:	48 c7 85 b0 fe ff ff 	movq   $0x1d,-0x150(%rbp)
    498f:	1d 00 00 00 
            values[idx] &= ~mask;
    4993:	48 8b 11             	mov    (%rcx),%rdx
    4996:	48 81 e2 ff ff ff df 	and    $0xffffffffdfffffff,%rdx
    499d:	48 89 11             	mov    %rdx,(%rcx)
            values[idx] |= usize(value) << shift;
    49a0:	48 8b 95 c8 fe ff ff 	mov    -0x138(%rbp),%rdx
    49a7:	48 8b 12             	mov    (%rdx),%rdx
    49aa:	48 c1 e2 1d          	shl    $0x1d,%rdx
    49ae:	48 0b 11             	or     (%rcx),%rdx
    49b1:	48 89 11             	mov    %rdx,(%rcx)
    49b4:	48 89 85 b8 fd ff ff 	mov    %rax,-0x248(%rbp)
    49bb:	c7 85 b4 fd ff ff 00 	movl   $0x0,-0x24c(%rbp)
    49c2:	00 00 00 
    49c5:	48 8b 85 b8 fd ff ff 	mov    -0x248(%rbp),%rax
    49cc:	48 63 8d b4 fd ff ff 	movslq -0x24c(%rbp),%rcx
    49d3:	48 89 8d a8 fd ff ff 	mov    %rcx,-0x258(%rbp)
    49da:	48 89 85 e0 fe ff ff 	mov    %rax,-0x120(%rbp)
    49e1:	48 8d 85 a8 fd ff ff 	lea    -0x258(%rbp),%rax
    49e8:	48 89 85 d8 fe ff ff 	mov    %rax,-0x128(%rbp)
    49ef:	48 8b 85 e0 fe ff ff 	mov    -0x120(%rbp),%rax
            priv_set<Id>(value, traits::BoolConstant<IsFieldEnabledV<Id>>());
    49f6:	48 8b 8d d8 fe ff ff 	mov    -0x128(%rbp),%rcx
    49fd:	48 89 85 08 ff ff ff 	mov    %rax,-0xf8(%rbp)
    4a04:	48 89 8d 00 ff ff ff 	mov    %rcx,-0x100(%rbp)
    4a0b:	48 8b 8d 08 ff ff ff 	mov    -0xf8(%rbp),%rcx
            USTL_CONSTEXPR usize const idx = GetFieldT<FieldList, Id>::UNIT;
    4a12:	48 c7 85 f8 fe ff ff 	movq   $0x0,-0x108(%rbp)
    4a19:	00 00 00 00 
            USTL_CONSTEXPR usize const mask = GetFieldT<FieldList, Id>::MASK;
    4a1d:	48 c7 85 f0 fe ff ff 	movq   $0x40000000,-0x110(%rbp)
    4a24:	00 00 00 40 
            USTL_CONSTEXPR usize const shift = GetFieldT<FieldList, Id>::SHIFT;
    4a28:	48 c7 85 e8 fe ff ff 	movq   $0x1e,-0x118(%rbp)
    4a2f:	1e 00 00 00 
            values[idx] &= ~mask;
    4a33:	48 8b 11             	mov    (%rcx),%rdx
    4a36:	48 81 e2 ff ff ff bf 	and    $0xffffffffbfffffff,%rdx
    4a3d:	48 89 11             	mov    %rdx,(%rcx)
            values[idx] |= usize(value) << shift;
    4a40:	48 8b 95 00 ff ff ff 	mov    -0x100(%rbp),%rdx
    4a47:	48 8b 12             	mov    (%rdx),%rdx
    4a4a:	48 c1 e2 1e          	shl    $0x1e,%rdx
    4a4e:	48 0b 11             	or     (%rcx),%rdx
    4a51:	48 89 11             	mov    %rdx,(%rcx)
    4a54:	48 89 85 c8 fd ff ff 	mov    %rax,-0x238(%rbp)
    4a5b:	48 8b 85 c8 fd ff ff 	mov    -0x238(%rbp),%rax
            Self::write(*static_cast<Derived const *>(this));
    4a62:	48 8b 00             	mov    (%rax),%rax
    4a65:	48 89 85 c0 fd ff ff 	mov    %rax,-0x240(%rbp)
    4a6c:	48 8b 85 c0 fd ff ff 	mov    -0x240(%rbp),%rax
    4a73:	48 89 85 10 ff ff ff 	mov    %rax,-0xf0(%rbp)
    4a7a:	48 8b 85 10 ff ff ff 	mov    -0xf0(%rbp),%rax
    4a81:	0f 22 c0             	mov    %rax,%cr0
            Field<Id<Cet>, Name<"cet">>,
            Field<Id<Pks>, Name<"pks">>
        > FieldList;
    };
    struct Cr4: public SysReg<Cr4> {};
    X86_IMPL_SYSREG(Cr4, "cr4");
    4a84:	0f 20 e0             	mov    %cr4,%rax
    4a87:	48 89 85 e8 fd ff ff 	mov    %rax,-0x218(%rbp)
    4a8e:	48 8b 85 e8 fd ff ff 	mov    -0x218(%rbp),%rax
    4a95:	48 89 85 d0 fd ff ff 	mov    %rax,-0x230(%rbp)
    4a9c:	48 8d 85 d0 fd ff ff 	lea    -0x230(%rbp),%rax
    4aa3:	48 89 85 d8 fd ff ff 	mov    %rax,-0x228(%rbp)
    4aaa:	48 c7 85 e0 fd ff ff 	movq   $0x1,-0x220(%rbp)
    4ab1:	01 00 00 00 
    4ab5:	48 8d bd f0 fd ff ff 	lea    -0x210(%rbp),%rdi
    4abc:	48 8d b5 d8 fd ff ff 	lea    -0x228(%rbp),%rsi
    4ac3:	e8 38 0d 00 00       	call   5800 <_ZN4arch6SysRegINS_3Cr4EECI2N4ustl9bitfields13BitFieldsImplImNS3_8TypeListIJNS4_13FieldMetaDataImLi0ELi0ELi1EmXtlNS3_4util11FixedStringILm4EEEtlA4_cLc118ELc109ELc101EEEELb1EEENS7_ImLi1ELi1ELi1EmXtlSA_tlSB_Lc112ELc118ELc105EEEELb1EEENS7_ImLi2ELi2ELi1EmXtlSA_tlSB_Lc116ELc115ELc100EEEELb1EEENS7_ImLi3ELi3ELi1EmXtlNS9_ILm3EEEtlA3_cLc100ELc101EEEELb1EEENS7_ImLi4ELi4ELi1EmXtlSA_tlSB_Lc112ELc115ELc101EEEELb1EEENS7_ImLi5ELi5ELi1EmXtlSA_tlSB_Lc112ELc97ELc101EEEELb1EEENS7_ImLi6ELi6ELi1EmXtlSA_tlSB_Lc109ELc99ELc101EEEELb1EEENS7_ImLi7ELi7ELi1EmXtlSA_tlSB_Lc112ELc103ELc101EEEELb1EEENS7_ImLi8ELi8ELi1EmXtlSA_tlSB_Lc112ELc99ELc101EEEELb1EEENS7_ImLi9ELi9ELi1EmXtlNS9_ILm7EEEtlA7_cLc111ELc115ELc102ELc120ELc115ELc114EEEELb1EEENS7_ImLi10ELi10ELi1EmXtlNS9_ILm10EEEtlA10_cLc111ELc115ELc109ELc109ELc101ELc120ELc99ELc112ELc116EEEELb1EEENS7_ImLi11ELi11ELi1EmXtlNS9_ILm5EEEtlA5_cLc117ELc109ELc105ELc112EEEELb1EEENS7_ImLi12ELi12ELi1EmXtlST_tlSU_Lc108ELc97ELc53ELc55EEEELb1EEENS7_ImLi13ELi13ELi1EmXtlST_tlSU_Lc118ELc109ELc120ELc101EEEELb1EEENS7_ImLi14ELi14ELi1EmXtlST_tlSU_Lc115ELc109ELc120ELc101EEEELb1EEENS7_ImLi16ELi16ELi1EmXtlNS9_ILm9EEEtlA9_cLc70ELc115ELc71ELc115ELc66ELc97ELc115ELc101EEEELb1EEENS7_ImLi17ELi17ELi1EmXtlNS9_ILm6EEEtlA6_cLc80ELc99ELc105ELc100ELc101EEEELb1EEENS7_ImLi18ELi18ELi1EmXtlNS9_ILm8EEEtlA8_cLc111ELc115ELc120ELc115ELc97ELc118ELc101EEEELb1EEENS7_ImLi20ELi20ELi1EmXtlST_tlSU_Lc115ELc109ELc101ELc112EEEELb1EEENS7_ImLi21ELi21ELi1EmXtlST_tlSU_Lc115ELc109ELc97ELc112EEEELb1EEENS7_ImLi22ELi22ELi1EmXtlSA_tlSB_Lc112ELc107ELc101EEEELb1EEENS7_ImLi23ELi23ELi1EmXtlSA_tlSB_Lc99ELc101ELc116EEEELb1EEENS7_ImLi24ELi24ELi1EmXtlSA_tlSB_Lc112ELc107ELc115EEEELb1EEEEEEEEERKSt16initializer_listImE>
    4ac8:	48 8b 85 f0 fd ff ff 	mov    -0x210(%rbp),%rax
                   .set<Cr0::Nw>(0)  // Disable no-write-through.
                   .set<Cr0::Cd>(0)  // Disable cache-disable.
                   .write();

        Cr4::read().set<Cr4::Smep>(x86_has_feature(CpuFeatureType::Smep))   // Unable to execute user code.
    4acf:	48 89 85 40 fd ff ff 	mov    %rax,-0x2c0(%rbp)
    4ad6:	bf 47 00 00 00       	mov    $0x47,%edi
    4adb:	e8 f0 f6 ff ff       	call   41d0 <_ZN4ours15x86_has_featureEN4arch14CpuFeatureTypeE>
    4ae0:	48 8d 8d 40 fd ff ff 	lea    -0x2c0(%rbp),%rcx
    4ae7:	48 89 8d 08 fe ff ff 	mov    %rcx,-0x1f8(%rbp)
    4aee:	24 01                	and    $0x1,%al
    4af0:	88 85 07 fe ff ff    	mov    %al,-0x1f9(%rbp)
    4af6:	48 8b 85 08 fe ff ff 	mov    -0x1f8(%rbp),%rax
            return static_cast<Self &>(this->Base::template set<I>(val));
    4afd:	8a 8d 07 fe ff ff    	mov    -0x1f9(%rbp),%cl
    4b03:	80 e1 01             	and    $0x1,%cl
    4b06:	0f b6 c9             	movzbl %cl,%ecx
    4b09:	48 89 8d f8 fd ff ff 	mov    %rcx,-0x208(%rbp)
    4b10:	48 89 85 20 ff ff ff 	mov    %rax,-0xe0(%rbp)
    4b17:	48 8d 85 f8 fd ff ff 	lea    -0x208(%rbp),%rax
    4b1e:	48 89 85 18 ff ff ff 	mov    %rax,-0xe8(%rbp)
    4b25:	48 8b 8d 20 ff ff ff 	mov    -0xe0(%rbp),%rcx
    4b2c:	48 89 8d 28 fd ff ff 	mov    %rcx,-0x2d8(%rbp)
            priv_set<Id>(value, traits::BoolConstant<IsFieldEnabledV<Id>>());
    4b33:	48 8b 85 18 ff ff ff 	mov    -0xe8(%rbp),%rax
    4b3a:	48 89 8d 48 ff ff ff 	mov    %rcx,-0xb8(%rbp)
    4b41:	48 89 85 40 ff ff ff 	mov    %rax,-0xc0(%rbp)
    4b48:	48 8b 85 48 ff ff ff 	mov    -0xb8(%rbp),%rax
            USTL_CONSTEXPR usize const idx = GetFieldT<FieldList, Id>::UNIT;
    4b4f:	48 c7 85 38 ff ff ff 	movq   $0x0,-0xc8(%rbp)
    4b56:	00 00 00 00 
            USTL_CONSTEXPR usize const mask = GetFieldT<FieldList, Id>::MASK;
    4b5a:	48 c7 85 30 ff ff ff 	movq   $0x100000,-0xd0(%rbp)
    4b61:	00 00 10 00 
            USTL_CONSTEXPR usize const shift = GetFieldT<FieldList, Id>::SHIFT;
    4b65:	48 c7 85 28 ff ff ff 	movq   $0x14,-0xd8(%rbp)
    4b6c:	14 00 00 00 
            values[idx] &= ~mask;
    4b70:	48 8b 08             	mov    (%rax),%rcx
    4b73:	48 81 e1 ff ff ef ff 	and    $0xffffffffffefffff,%rcx
    4b7a:	48 89 08             	mov    %rcx,(%rax)
            values[idx] |= usize(value) << shift;
    4b7d:	48 8b 8d 40 ff ff ff 	mov    -0xc0(%rbp),%rcx
    4b84:	48 8b 09             	mov    (%rcx),%rcx
    4b87:	48 c1 e1 14          	shl    $0x14,%rcx
    4b8b:	48 0b 08             	or     (%rax),%rcx
    4b8e:	48 89 08             	mov    %rcx,(%rax)
    4b91:	bf 54 00 00 00       	mov    $0x54,%edi
                   .set<Cr4::Smap>(x86_has_feature(CpuFeatureType::Smap))   // Unable to read user data.
    4b96:	e8 35 f6 ff ff       	call   41d0 <_ZN4ours15x86_has_featureEN4arch14CpuFeatureTypeE>
    4b9b:	48 8b 8d 28 fd ff ff 	mov    -0x2d8(%rbp),%rcx
    4ba2:	48 89 8d 20 fe ff ff 	mov    %rcx,-0x1e0(%rbp)
    4ba9:	24 01                	and    $0x1,%al
    4bab:	88 85 1f fe ff ff    	mov    %al,-0x1e1(%rbp)
    4bb1:	48 8b 85 20 fe ff ff 	mov    -0x1e0(%rbp),%rax
    4bb8:	8a 8d 1f fe ff ff    	mov    -0x1e1(%rbp),%cl
    4bbe:	80 e1 01             	and    $0x1,%cl
    4bc1:	0f b6 c9             	movzbl %cl,%ecx
    4bc4:	48 89 8d 10 fe ff ff 	mov    %rcx,-0x1f0(%rbp)
    4bcb:	48 89 85 58 ff ff ff 	mov    %rax,-0xa8(%rbp)
    4bd2:	48 8d 85 10 fe ff ff 	lea    -0x1f0(%rbp),%rax
    4bd9:	48 89 85 50 ff ff ff 	mov    %rax,-0xb0(%rbp)
    4be0:	48 8b 8d 58 ff ff ff 	mov    -0xa8(%rbp),%rcx
    4be7:	48 89 8d 30 fd ff ff 	mov    %rcx,-0x2d0(%rbp)
            priv_set<Id>(value, traits::BoolConstant<IsFieldEnabledV<Id>>());
    4bee:	48 8b 85 50 ff ff ff 	mov    -0xb0(%rbp),%rax
    4bf5:	48 89 4d 80          	mov    %rcx,-0x80(%rbp)
    4bf9:	48 89 85 78 ff ff ff 	mov    %rax,-0x88(%rbp)
    4c00:	48 8b 45 80          	mov    -0x80(%rbp),%rax
            USTL_CONSTEXPR usize const idx = GetFieldT<FieldList, Id>::UNIT;
    4c04:	48 c7 85 70 ff ff ff 	movq   $0x0,-0x90(%rbp)
    4c0b:	00 00 00 00 
            USTL_CONSTEXPR usize const mask = GetFieldT<FieldList, Id>::MASK;
    4c0f:	48 c7 85 68 ff ff ff 	movq   $0x200000,-0x98(%rbp)
    4c16:	00 00 20 00 
            USTL_CONSTEXPR usize const shift = GetFieldT<FieldList, Id>::SHIFT;
    4c1a:	48 c7 85 60 ff ff ff 	movq   $0x15,-0xa0(%rbp)
    4c21:	15 00 00 00 
            values[idx] &= ~mask;
    4c25:	48 8b 08             	mov    (%rax),%rcx
    4c28:	48 81 e1 ff ff df ff 	and    $0xffffffffffdfffff,%rcx
    4c2f:	48 89 08             	mov    %rcx,(%rax)
            values[idx] |= usize(value) << shift;
    4c32:	48 8b 8d 78 ff ff ff 	mov    -0x88(%rbp),%rcx
    4c39:	48 8b 09             	mov    (%rcx),%rcx
    4c3c:	48 c1 e1 15          	shl    $0x15,%rcx
    4c40:	48 0b 08             	or     (%rax),%rcx
    4c43:	48 89 08             	mov    %rcx,(%rax)
    4c46:	bf 31 00 00 00       	mov    $0x31,%edi
                   .set<Cr4::Pcide>(x86_has_feature(CpuFeatureType::Pcid))  // Enable process context identifier
    4c4b:	e8 80 f5 ff ff       	call   41d0 <_ZN4ours15x86_has_featureEN4arch14CpuFeatureTypeE>
    4c50:	48 8b 8d 30 fd ff ff 	mov    -0x2d0(%rbp),%rcx
    4c57:	48 89 8d 38 fe ff ff 	mov    %rcx,-0x1c8(%rbp)
    4c5e:	24 01                	and    $0x1,%al
    4c60:	88 85 37 fe ff ff    	mov    %al,-0x1c9(%rbp)
    4c66:	48 8b 85 38 fe ff ff 	mov    -0x1c8(%rbp),%rax
    4c6d:	8a 8d 37 fe ff ff    	mov    -0x1c9(%rbp),%cl
    4c73:	80 e1 01             	and    $0x1,%cl
    4c76:	0f b6 c9             	movzbl %cl,%ecx
    4c79:	48 89 8d 28 fe ff ff 	mov    %rcx,-0x1d8(%rbp)
    4c80:	48 89 45 90          	mov    %rax,-0x70(%rbp)
    4c84:	48 8d 85 28 fe ff ff 	lea    -0x1d8(%rbp),%rax
    4c8b:	48 89 45 88          	mov    %rax,-0x78(%rbp)
    4c8f:	48 8b 45 90          	mov    -0x70(%rbp),%rax
            priv_set<Id>(value, traits::BoolConstant<IsFieldEnabledV<Id>>());
    4c93:	48 8b 4d 88          	mov    -0x78(%rbp),%rcx
    4c97:	48 89 45 b8          	mov    %rax,-0x48(%rbp)
    4c9b:	48 89 4d b0          	mov    %rcx,-0x50(%rbp)
    4c9f:	48 8b 4d b8          	mov    -0x48(%rbp),%rcx
            USTL_CONSTEXPR usize const idx = GetFieldT<FieldList, Id>::UNIT;
    4ca3:	48 c7 45 a8 00 00 00 	movq   $0x0,-0x58(%rbp)
    4caa:	00 
            USTL_CONSTEXPR usize const mask = GetFieldT<FieldList, Id>::MASK;
    4cab:	48 c7 45 a0 00 00 02 	movq   $0x20000,-0x60(%rbp)
    4cb2:	00 
            USTL_CONSTEXPR usize const shift = GetFieldT<FieldList, Id>::SHIFT;
    4cb3:	48 c7 45 98 11 00 00 	movq   $0x11,-0x68(%rbp)
    4cba:	00 
            values[idx] &= ~mask;
    4cbb:	48 8b 11             	mov    (%rcx),%rdx
    4cbe:	48 81 e2 ff ff fd ff 	and    $0xfffffffffffdffff,%rdx
    4cc5:	48 89 11             	mov    %rdx,(%rcx)
            values[idx] |= usize(value) << shift;
    4cc8:	48 8b 55 b0          	mov    -0x50(%rbp),%rdx
    4ccc:	48 8b 12             	mov    (%rdx),%rdx
    4ccf:	48 c1 e2 11          	shl    $0x11,%rdx
    4cd3:	48 0b 11             	or     (%rcx),%rdx
    4cd6:	48 89 11             	mov    %rdx,(%rcx)
    4cd9:	48 89 85 50 fe ff ff 	mov    %rax,-0x1b0(%rbp)
    4ce0:	c7 85 4c fe ff ff 01 	movl   $0x1,-0x1b4(%rbp)
    4ce7:	00 00 00 
    4cea:	48 8b 85 50 fe ff ff 	mov    -0x1b0(%rbp),%rax
    4cf1:	48 63 8d 4c fe ff ff 	movslq -0x1b4(%rbp),%rcx
    4cf8:	48 89 8d 40 fe ff ff 	mov    %rcx,-0x1c0(%rbp)
    4cff:	48 89 45 c8          	mov    %rax,-0x38(%rbp)
    4d03:	48 8d 85 40 fe ff ff 	lea    -0x1c0(%rbp),%rax
    4d0a:	48 89 45 c0          	mov    %rax,-0x40(%rbp)
    4d0e:	48 8b 45 c8          	mov    -0x38(%rbp),%rax
            priv_set<Id>(value, traits::BoolConstant<IsFieldEnabledV<Id>>());
    4d12:	48 8b 4d c0          	mov    -0x40(%rbp),%rcx
    4d16:	48 89 45 f0          	mov    %rax,-0x10(%rbp)
    4d1a:	48 89 4d e8          	mov    %rcx,-0x18(%rbp)
    4d1e:	48 8b 4d f0          	mov    -0x10(%rbp),%rcx
            USTL_CONSTEXPR usize const idx = GetFieldT<FieldList, Id>::UNIT;
    4d22:	48 c7 45 e0 00 00 00 	movq   $0x0,-0x20(%rbp)
    4d29:	00 
            USTL_CONSTEXPR usize const mask = GetFieldT<FieldList, Id>::MASK;
    4d2a:	48 c7 45 d8 80 00 00 	movq   $0x80,-0x28(%rbp)
    4d31:	00 
            USTL_CONSTEXPR usize const shift = GetFieldT<FieldList, Id>::SHIFT;
    4d32:	48 c7 45 d0 07 00 00 	movq   $0x7,-0x30(%rbp)
    4d39:	00 
            values[idx] &= ~mask;
    4d3a:	48 8b 11             	mov    (%rcx),%rdx
    4d3d:	48 81 e2 7f ff ff ff 	and    $0xffffffffffffff7f,%rdx
    4d44:	48 89 11             	mov    %rdx,(%rcx)
            values[idx] |= usize(value) << shift;
    4d47:	48 8b 55 e8          	mov    -0x18(%rbp),%rdx
    4d4b:	48 8b 12             	mov    (%rdx),%rdx
    4d4e:	48 c1 e2 07          	shl    $0x7,%rdx
    4d52:	48 0b 11             	or     (%rcx),%rdx
    4d55:	48 89 11             	mov    %rdx,(%rcx)
    4d58:	48 89 85 60 fe ff ff 	mov    %rax,-0x1a0(%rbp)
    4d5f:	48 8b 85 60 fe ff ff 	mov    -0x1a0(%rbp),%rax
            Self::write(*static_cast<Derived const *>(this));
    4d66:	48 8b 00             	mov    (%rax),%rax
    4d69:	48 89 85 58 fe ff ff 	mov    %rax,-0x1a8(%rbp)
    4d70:	48 8b 85 58 fe ff ff 	mov    -0x1a8(%rbp),%rax
    4d77:	48 89 45 f8          	mov    %rax,-0x8(%rbp)
    4d7b:	48 8b 45 f8          	mov    -0x8(%rbp),%rax
    4d7f:	0f 22 e0             	mov    %rax,%cr4
    4d82:	bf 80 00 00 c0       	mov    $0xc0000080,%edi
#if PAGING_LEVEL == 5
                   .set<Cr4::La57>(x86_has_feature(CpuFeatureType::La57))
#endif
                   .write();
        
        auto shadow = MsrIo::read<usize>(MsrRegAddr::IA32Efer);
    4d87:	e8 24 01 00 00       	call   4eb0 <_ZN4arch5MsrIo4readImEET_NS_10MsrRegAddrE>
    4d8c:	48 89 85 38 fd ff ff 	mov    %rax,-0x2c8(%rbp)
        shadow |= X86_EFER_NXE;
    4d93:	48 8b 85 38 fd ff ff 	mov    -0x2c8(%rbp),%rax
    4d9a:	48 0d 00 08 00 00    	or     $0x800,%rax
    4da0:	48 89 85 38 fd ff ff 	mov    %rax,-0x2c8(%rbp)
        MsrIo::write(MsrRegAddr::IA32Efer, shadow);
    4da7:	48 8b b5 38 fd ff ff 	mov    -0x2c8(%rbp),%rsi
    4dae:	bf 80 00 00 c0       	mov    $0xc0000080,%edi
    4db3:	e8 38 e4 ff ff       	call   31f0 <_ZN4arch5MsrIo5writeImEEvNS_10MsrRegAddrET_>
    }
    4db8:	48 81 c4 e0 02 00 00 	add    $0x2e0,%rsp
    4dbf:	5d                   	pop    %rbp
    4dc0:	c3                   	ret
    4dc1:	66 66 66 66 66 66 2e 	data16 data16 data16 data16 data16 cs nopw 0x0(%rax,%rax,1)
    4dc8:	0f 1f 84 00 00 00 00 
    4dcf:	00 

0000000000004dd0 <_ZN4ours19x86_setup_mmu_earlyEv>:

    auto x86_setup_mmu_early() -> void {
    4dd0:	55                   	push   %rbp
    4dd1:	48 89 e5             	mov    %rsp,%rbp
    4dd4:	48 83 ec 70          	sub    $0x70,%rsp
    X86_IMPL_SYSREG(Cr3, "cr3");
    4dd8:	0f 20 d8             	mov    %cr3,%rax
    4ddb:	48 89 45 c8          	mov    %rax,-0x38(%rbp)
    4ddf:	48 8b 45 c8          	mov    -0x38(%rbp),%rax
    4de3:	48 89 45 b0          	mov    %rax,-0x50(%rbp)
    4de7:	48 8d 45 b0          	lea    -0x50(%rbp),%rax
    4deb:	48 89 45 b8          	mov    %rax,-0x48(%rbp)
    4def:	48 c7 45 c0 01 00 00 	movq   $0x1,-0x40(%rbp)
    4df6:	00 
    4df7:	48 8d 7d d0          	lea    -0x30(%rbp),%rdi
    4dfb:	48 8d 75 b8          	lea    -0x48(%rbp),%rsi
    4dff:	e8 9c 0a 00 00       	call   58a0 <_ZN4arch3Cr3CI2N4ustl9bitfields13BitFieldsImplImNS1_8TypeListIJNS2_13FieldMetaDataImLi0ELi0ELi64EmXtlNS1_4util11FixedStringILm10EEEtlA10_cLc65ELc110ELc111ELc110ELc121ELc109ELc111ELc117ELc115EEEELb1EEEEEEEEERKSt16initializer_listImE>
    4e04:	48 8b 45 d0          	mov    -0x30(%rbp),%rax
        mem::g_pgd = Cr3::read().get<Cr3::PageTableAddress>();
    4e08:	48 89 45 a8          	mov    %rax,-0x58(%rbp)
    4e0c:	48 8d 45 a8          	lea    -0x58(%rbp),%rax
    4e10:	48 89 45 d8          	mov    %rax,-0x28(%rbp)
    4e14:	48 8b 45 d8          	mov    -0x28(%rbp),%rax
    4e18:	48 89 45 f8          	mov    %rax,-0x8(%rbp)
    4e1c:	48 8b 45 f8          	mov    -0x8(%rbp),%rax

        template<usize Id>
        USTL_FORCEINLINE USTL_CONSTEXPR
        auto priv_get(traits::TrueType) const USTL_NOEXCEPT -> ValueTypeOf<Id> {
            typedef ValueTypeOf<Id> Result;
            USTL_CONSTEXPR usize const idx = GetFieldT<FieldList, Id>::UNIT;
    4e20:	48 c7 45 f0 00 00 00 	movq   $0x0,-0x10(%rbp)
    4e27:	00 
            USTL_CONSTEXPR usize const mask = GetFieldT<FieldList, Id>::MASK;
    4e28:	48 c7 45 e8 ff ff ff 	movq   $0xffffffffffffffff,-0x18(%rbp)
    4e2f:	ff 
            USTL_CONSTEXPR usize const shift = GetFieldT<FieldList, Id>::SHIFT;
    4e30:	48 c7 45 e0 00 00 00 	movq   $0x0,-0x20(%rbp)
    4e37:	00 
            return Result((values[idx] & mask) >> shift);
    4e38:	48 8b 00             	mov    (%rax),%rax
    4e3b:	48 89 05 be 39 03 00 	mov    %rax,0x339be(%rip)        # 38800 <g_pgd>

        // Tear down the transient 1:1 identity mappings established by `PhysBoot`
        // during early boot process, and permit low-memory regions to temporarily 
        // utilize the PhysMap virtual addressing scheme until full memory management
        // infrastructure is operational.
        auto pgd = reinterpret_cast<arch::PteVal *>(mem::g_pgd);
    4e42:	48 8b 05 b7 39 03 00 	mov    0x339b7(%rip),%rax        # 38800 <g_pgd>
    4e49:	48 89 45 a0          	mov    %rax,-0x60(%rbp)
        pgd[0] = pgd[511];
    4e4d:	48 8b 45 a0          	mov    -0x60(%rbp),%rax
    4e51:	48 8b 88 f8 0f 00 00 	mov    0xff8(%rax),%rcx
    4e58:	48 8b 45 a0          	mov    -0x60(%rbp),%rax
    4e5c:	48 89 08             	mov    %rcx,(%rax)
        x86_tlb_global_invalidate();
    4e5f:	e8 fc f8 ff ff       	call   4760 <_ZN4ours25x86_tlb_global_invalidateEv>

        x86_setup_mmu_percpu();
    4e64:	e8 a7 f9 ff ff       	call   4810 <_ZN4ours20x86_setup_mmu_percpuEv>

        dispatch_cpuid(arch::AddrSizeCpuIdObserver(
    4e69:	48 8d 35 48 c7 02 00 	lea    0x2c748(%rip),%rsi        # 315b8 <g_arch_phys_addr_bits>
    4e70:	48 8d 15 42 c7 02 00 	lea    0x2c742(%rip),%rdx        # 315b9 <g_arch_virt_addr_bits>
    4e77:	48 8d 7d 90          	lea    -0x70(%rbp),%rdi
    4e7b:	e8 90 00 00 00       	call   4f10 <_ZN4arch21AddrSizeCpuIdObserverC2ERhS1_>
    4e80:	48 8d 7d 90          	lea    -0x70(%rbp),%rdi
    4e84:	e8 57 00 00 00       	call   4ee0 <_ZN4arch14dispatch_cpuidIJNS_21AddrSizeCpuIdObserverEEEEbDpOT_>
            mem::g_arch_virt_addr_bits)
        );
#if PAGING_LEVEL == 5
        mem::g_arch_virt_addr_bits = 57;
#endif
    }
    4e89:	48 83 c4 70          	add    $0x70,%rsp
    4e8d:	5d                   	pop    %rbp
    4e8e:	c3                   	ret
    4e8f:	90                   	nop

0000000000004e90 <_ZN4ours13x86_setup_mmuEv>:

    auto x86_setup_mmu() -> void {
    4e90:	55                   	push   %rbp
    4e91:	48 89 e5             	mov    %rsp,%rbp
        // Unmap low address.
        reinterpret_cast<arch::PteVal *>(mem::g_pgd)[0] = 0;
    4e94:	48 8b 05 65 39 03 00 	mov    0x33965(%rip),%rax        # 38800 <g_pgd>
    4e9b:	48 c7 00 00 00 00 00 	movq   $0x0,(%rax)
        x86_tlb_global_invalidate();
    4ea2:	e8 b9 f8 ff ff       	call   4760 <_ZN4ours25x86_tlb_global_invalidateEv>
    }
    4ea7:	5d                   	pop    %rbp
    4ea8:	c3                   	ret
    4ea9:	0f 1f 80 00 00 00 00 	nopl   0x0(%rax)

0000000000004eb0 <_ZN4arch5MsrIo4readImEET_NS_10MsrRegAddrE>:

        template <typename Int>
        static auto read(MsrRegAddr addr) -> Int {
    4eb0:	55                   	push   %rbp
    4eb1:	48 89 e5             	mov    %rsp,%rbp
    4eb4:	89 7d fc             	mov    %edi,-0x4(%rbp)
            // static_assert(internal::IsSupportedInt<Int>::value, "unsupported register access width");
            u32 lo, hi;
            asm volatile("rdmsr" : "=a"(lo), "=d"(hi) : "c"(addr));
    4eb7:	8b 4d fc             	mov    -0x4(%rbp),%ecx
    4eba:	0f 32                	rdmsr
    4ebc:	89 45 f8             	mov    %eax,-0x8(%rbp)
    4ebf:	89 55 f4             	mov    %edx,-0xc(%rbp)
            return static_cast<Int>((static_cast<u64>(hi) << 32) | lo);
    4ec2:	8b 45 f4             	mov    -0xc(%rbp),%eax
    4ec5:	48 c1 e0 20          	shl    $0x20,%rax
    4ec9:	8b 4d f8             	mov    -0x8(%rbp),%ecx
    4ecc:	48 09 c8             	or     %rcx,%rax
    4ecf:	5d                   	pop    %rbp
    4ed0:	c3                   	ret
    4ed1:	66 2e 0f 1f 84 00 00 	cs nopw 0x0(%rax,%rax,1)
    4ed8:	00 00 00 
    4edb:	0f 1f 44 00 00       	nopl   0x0(%rax,%rax,1)

0000000000004ee0 <_ZN4arch14dispatch_cpuidIJNS_21AddrSizeCpuIdObserverEEEEbDpOT_>:
    ///  1). Extract the required CPUID leaf and subleaf information from the provided Observers...;
    ///  2). Execute the corresponding CPUID instructions;
    ///  3). Distribute the results to each observer for decoding and interpretation;
    ///  4). Return a boolean indicating whether all operations completed successfully.
    template <typename... Observers>
    auto dispatch_cpuid(Observers &&...observers) -> bool {
    4ee0:	55                   	push   %rbp
    4ee1:	48 89 e5             	mov    %rsp,%rbp
    4ee4:	48 83 ec 30          	sub    $0x30,%rsp
    4ee8:	48 89 7d f0          	mov    %rdi,-0x10(%rbp)
        typedef typename ExtractActionsFromObservers<Observers...>::Type   Actions;
        CpuId cpuid;
        return dispatch_cpuid_0(cpuid, Actions(), ustl::forward<Observers>(observers)...);
    4eec:	48 8b 45 f0          	mov    -0x10(%rbp),%rax
    4ef0:	48 89 45 f8          	mov    %rax,-0x8(%rbp)
    { return static_cast<typename traits::RemoveRefT<T> &&>(lr); }

    template <typename T>
    USTL_FORCEINLINE USTL_CONSTEXPR 
    auto forward(traits::RemoveRefT<T> &lr) USTL_NOEXCEPT -> T &&
    { return static_cast<T &&>(lr); }
    4ef4:	48 8b 75 f8          	mov    -0x8(%rbp),%rsi
    4ef8:	48 8d 7d e0          	lea    -0x20(%rbp),%rdi
    4efc:	e8 6f 0a 00 00       	call   5970 <_ZN4arch16dispatch_cpuid_0IRNS_5CpuIdEJNS_11CpuIdActionILNS_9CpuIdLeafE2147483656ELNS_12CpuIdSubLeafE0EEEEJNS_21AddrSizeCpuIdObserverEEEEbOT_N4ustl8TypeListIJDpT0_EEEDpOT1_>
    4f01:	24 01                	and    $0x1,%al
    4f03:	48 83 c4 30          	add    $0x30,%rsp
    4f07:	5d                   	pop    %rbp
    4f08:	c3                   	ret
    4f09:	0f 1f 80 00 00 00 00 	nopl   0x0(%rax)

0000000000004f10 <_ZN4arch21AddrSizeCpuIdObserverC2ERhS1_>:
    struct AddrSizeCpuIdObserver
        : CpuIdObserver<AddrSizeCpuIdObserver, 
                        CpuIdObserveItem<CpuIdLeaf::IntelAddrWidth, CpuIdSubLeaf(0), CpuIdRegTags::Eax>> {
        AddrSizeCpuIdObserver(u8 &max_phys_bits, u8 &max_virt_bits) 
            : max_phys_bits(&max_phys_bits), max_virt_bits(&max_virt_bits)
        {}
    4f10:	55                   	push   %rbp
    4f11:	48 89 e5             	mov    %rsp,%rbp
    4f14:	48 89 7d f8          	mov    %rdi,-0x8(%rbp)
    4f18:	48 89 75 f0          	mov    %rsi,-0x10(%rbp)
    4f1c:	48 89 55 e8          	mov    %rdx,-0x18(%rbp)
    4f20:	48 8b 45 f8          	mov    -0x8(%rbp),%rax
            : max_phys_bits(&max_phys_bits), max_virt_bits(&max_virt_bits)
    4f24:	48 8b 4d f0          	mov    -0x10(%rbp),%rcx
    4f28:	48 89 08             	mov    %rcx,(%rax)
    4f2b:	48 8b 4d e8          	mov    -0x18(%rbp),%rcx
    4f2f:	48 89 48 08          	mov    %rcx,0x8(%rax)
        {}
    4f33:	5d                   	pop    %rbp
    4f34:	c3                   	ret
    4f35:	66 2e 0f 1f 84 00 00 	cs nopw 0x0(%rax,%rax,1)
    4f3c:	00 00 00 
    4f3f:	90                   	nop

0000000000004f40 <_ZN4arch6SysRegINS_3Cr0EECI2N4ustl9bitfields13BitFieldsImplImNS3_8TypeListIJNS4_13FieldMetaDataImLi0ELi0ELi1EmXtlNS3_4util11FixedStringILm4EEEtlA4_cLc120ELc56ELc55EEEELb1EEENS7_ImLi1ELi1ELi1EmXtlSA_tlSB_Lc83ELc115ELc101EEEELb1EEENS7_ImLi2ELi2ELi1EmXtlSA_tlSB_Lc65ELc118ELc120EEEELb1EEENS7_ImLi3ELi3ELi1EmXtlNS9_ILm7EEEtlA7_cLc66ELc110ELc100ELc82ELc101ELc103EEEELb1EEENS7_ImLi4ELi4ELi1EmXtlSF_tlSG_Lc66ELc110ELc100ELc67ELc115ELc114EEEELb1EEENS7_ImLi5ELi5ELi1EmXtlSF_tlSG_Lc79ELc112ELc77ELc97ELc115ELc107EEEELb1EEENS7_ImLi6ELi16ELi1EmXtlNS9_ILm9EEEtlA9_cLc90ELc109ELc109ELc72ELc105ELc50ELc53ELc54EEEELb1EEENS7_ImLi7ELi18ELi1EmXtlNS9_ILm8EEEtlA8_cLc72ELc105ELc49ELc54ELc90ELc109ELc109EEEELb1EEENS7_ImLi8ELi29ELi1EmXtlNS9_ILm3EEEtlA3_cLc80ELc48EEEELb1EEENS7_ImLi9ELi30ELi1EmXtlNS9_ILm5EEEtlA5_cLc80ELc107ELc114ELc117EEEELb1EEENS7_ImLi10ELi31ELi1EmXtlST_tlSU_Lc80ELc107ELc114ELc117EEEELb1EEEEEEEEERKSt16initializer_listImE>:
        using Base::Base;
    4f40:	55                   	push   %rbp
    4f41:	48 89 e5             	mov    %rsp,%rbp
    4f44:	48 83 ec 10          	sub    $0x10,%rsp
    4f48:	48 89 7d f8          	mov    %rdi,-0x8(%rbp)
    4f4c:	48 89 75 f0          	mov    %rsi,-0x10(%rbp)
    4f50:	48 8b 7d f8          	mov    -0x8(%rbp),%rdi
    4f54:	48 8b 75 f0          	mov    -0x10(%rbp),%rsi
    4f58:	e8 13 00 00 00       	call   4f70 <_ZN4ustl9bitfields13BitFieldsImplImNS_8TypeListIJNS0_13FieldMetaDataImLi0ELi0ELi1EmXtlNS_4util11FixedStringILm4EEEtlA4_cLc120ELc56ELc55EEEELb1EEENS3_ImLi1ELi1ELi1EmXtlS6_tlS7_Lc83ELc115ELc101EEEELb1EEENS3_ImLi2ELi2ELi1EmXtlS6_tlS7_Lc65ELc118ELc120EEEELb1EEENS3_ImLi3ELi3ELi1EmXtlNS5_ILm7EEEtlA7_cLc66ELc110ELc100ELc82ELc101ELc103EEEELb1EEENS3_ImLi4ELi4ELi1EmXtlSB_tlSC_Lc66ELc110ELc100ELc67ELc115ELc114EEEELb1EEENS3_ImLi5ELi5ELi1EmXtlSB_tlSC_Lc79ELc112ELc77ELc97ELc115ELc107EEEELb1EEENS3_ImLi6ELi16ELi1EmXtlNS5_ILm9EEEtlA9_cLc90ELc109ELc109ELc72ELc105ELc50ELc53ELc54EEEELb1EEENS3_ImLi7ELi18ELi1EmXtlNS5_ILm8EEEtlA8_cLc72ELc105ELc49ELc54ELc90ELc109ELc109EEEELb1EEENS3_ImLi8ELi29ELi1EmXtlNS5_ILm3EEEtlA3_cLc80ELc48EEEELb1EEENS3_ImLi9ELi30ELi1EmXtlNS5_ILm5EEEtlA5_cLc80ELc107ELc114ELc117EEEELb1EEENS3_ImLi10ELi31ELi1EmXtlSP_tlSQ_Lc80ELc107ELc114ELc117EEEELb1EEEEEEEC2ERKSt16initializer_listImE>
    4f5d:	48 83 c4 10          	add    $0x10,%rsp
    4f61:	5d                   	pop    %rbp
    4f62:	c3                   	ret
    4f63:	66 2e 0f 1f 84 00 00 	cs nopw 0x0(%rax,%rax,1)
    4f6a:	00 00 00 
    4f6d:	0f 1f 00             	nopl   (%rax)

0000000000004f70 <_ZN4ustl9bitfields13BitFieldsImplImNS_8TypeListIJNS0_13FieldMetaDataImLi0ELi0ELi1EmXtlNS_4util11FixedStringILm4EEEtlA4_cLc120ELc56ELc55EEEELb1EEENS3_ImLi1ELi1ELi1EmXtlS6_tlS7_Lc83ELc115ELc101EEEELb1EEENS3_ImLi2ELi2ELi1EmXtlS6_tlS7_Lc65ELc118ELc120EEEELb1EEENS3_ImLi3ELi3ELi1EmXtlNS5_ILm7EEEtlA7_cLc66ELc110ELc100ELc82ELc101ELc103EEEELb1EEENS3_ImLi4ELi4ELi1EmXtlSB_tlSC_Lc66ELc110ELc100ELc67ELc115ELc114EEEELb1EEENS3_ImLi5ELi5ELi1EmXtlSB_tlSC_Lc79ELc112ELc77ELc97ELc115ELc107EEEELb1EEENS3_ImLi6ELi16ELi1EmXtlNS5_ILm9EEEtlA9_cLc90ELc109ELc109ELc72ELc105ELc50ELc53ELc54EEEELb1EEENS3_ImLi7ELi18ELi1EmXtlNS5_ILm8EEEtlA8_cLc72ELc105ELc49ELc54ELc90ELc109ELc109EEEELb1EEENS3_ImLi8ELi29ELi1EmXtlNS5_ILm3EEEtlA3_cLc80ELc48EEEELb1EEENS3_ImLi9ELi30ELi1EmXtlNS5_ILm5EEEtlA5_cLc80ELc107ELc114ELc117EEEELb1EEENS3_ImLi10ELi31ELi1EmXtlSP_tlSQ_Lc80ELc107ELc114ELc117EEEELb1EEEEEEEC2ERKSt16initializer_listImE>:
        BitFieldsImpl(ustl::InitializerList<usize> const &val) {
    4f70:	55                   	push   %rbp
    4f71:	48 89 e5             	mov    %rsp,%rbp
    4f74:	48 83 ec 30          	sub    $0x30,%rsp
    4f78:	48 89 7d f8          	mov    %rdi,-0x8(%rbp)
    4f7c:	48 89 75 f0          	mov    %rsi,-0x10(%rbp)
    4f80:	48 8b 45 f8          	mov    -0x8(%rbp),%rax
    4f84:	48 89 45 e0          	mov    %rax,-0x20(%rbp)
            ustl::algorithms::copy_n(val.begin(), NUM_UNITS > val.size() ? val.size() : NUM_UNITS, values);
    4f88:	48 8b 7d f0          	mov    -0x10(%rbp),%rdi
    4f8c:	e8 8f 00 00 00       	call   5020 <_ZNKSt16initializer_listImE5beginB8nn210000Ev>
    4f91:	48 89 45 e8          	mov    %rax,-0x18(%rbp)
    4f95:	48 8b 7d f0          	mov    -0x10(%rbp),%rdi
    4f99:	e8 a2 00 00 00       	call   5040 <_ZNKSt16initializer_listImE4sizeB8nn210000Ev>
    4f9e:	48 89 c1             	mov    %rax,%rcx
    4fa1:	b8 01 00 00 00       	mov    $0x1,%eax
    4fa6:	48 39 c8             	cmp    %rcx,%rax
    4fa9:	76 0f                	jbe    4fba <_ZN4ustl9bitfields13BitFieldsImplImNS_8TypeListIJNS0_13FieldMetaDataImLi0ELi0ELi1EmXtlNS_4util11FixedStringILm4EEEtlA4_cLc120ELc56ELc55EEEELb1EEENS3_ImLi1ELi1ELi1EmXtlS6_tlS7_Lc83ELc115ELc101EEEELb1EEENS3_ImLi2ELi2ELi1EmXtlS6_tlS7_Lc65ELc118ELc120EEEELb1EEENS3_ImLi3ELi3ELi1EmXtlNS5_ILm7EEEtlA7_cLc66ELc110ELc100ELc82ELc101ELc103EEEELb1EEENS3_ImLi4ELi4ELi1EmXtlSB_tlSC_Lc66ELc110ELc100ELc67ELc115ELc114EEEELb1EEENS3_ImLi5ELi5ELi1EmXtlSB_tlSC_Lc79ELc112ELc77ELc97ELc115ELc107EEEELb1EEENS3_ImLi6ELi16ELi1EmXtlNS5_ILm9EEEtlA9_cLc90ELc109ELc109ELc72ELc105ELc50ELc53ELc54EEEELb1EEENS3_ImLi7ELi18ELi1EmXtlNS5_ILm8EEEtlA8_cLc72ELc105ELc49ELc54ELc90ELc109ELc109EEEELb1EEENS3_ImLi8ELi29ELi1EmXtlNS5_ILm3EEEtlA3_cLc80ELc48EEEELb1EEENS3_ImLi9ELi30ELi1EmXtlNS5_ILm5EEEtlA5_cLc80ELc107ELc114ELc117EEEELb1EEENS3_ImLi10ELi31ELi1EmXtlSP_tlSQ_Lc80ELc107ELc114ELc117EEEELb1EEEEEEEC2ERKSt16initializer_listImE+0x4a>
    4fab:	48 8b 7d f0          	mov    -0x10(%rbp),%rdi
    4faf:	e8 8c 00 00 00       	call   5040 <_ZNKSt16initializer_listImE4sizeB8nn210000Ev>
    4fb4:	48 89 45 d8          	mov    %rax,-0x28(%rbp)
    4fb8:	eb 0b                	jmp    4fc5 <_ZN4ustl9bitfields13BitFieldsImplImNS_8TypeListIJNS0_13FieldMetaDataImLi0ELi0ELi1EmXtlNS_4util11FixedStringILm4EEEtlA4_cLc120ELc56ELc55EEEELb1EEENS3_ImLi1ELi1ELi1EmXtlS6_tlS7_Lc83ELc115ELc101EEEELb1EEENS3_ImLi2ELi2ELi1EmXtlS6_tlS7_Lc65ELc118ELc120EEEELb1EEENS3_ImLi3ELi3ELi1EmXtlNS5_ILm7EEEtlA7_cLc66ELc110ELc100ELc82ELc101ELc103EEEELb1EEENS3_ImLi4ELi4ELi1EmXtlSB_tlSC_Lc66ELc110ELc100ELc67ELc115ELc114EEEELb1EEENS3_ImLi5ELi5ELi1EmXtlSB_tlSC_Lc79ELc112ELc77ELc97ELc115ELc107EEEELb1EEENS3_ImLi6ELi16ELi1EmXtlNS5_ILm9EEEtlA9_cLc90ELc109ELc109ELc72ELc105ELc50ELc53ELc54EEEELb1EEENS3_ImLi7ELi18ELi1EmXtlNS5_ILm8EEEtlA8_cLc72ELc105ELc49ELc54ELc90ELc109ELc109EEEELb1EEENS3_ImLi8ELi29ELi1EmXtlNS5_ILm3EEEtlA3_cLc80ELc48EEEELb1EEENS3_ImLi9ELi30ELi1EmXtlNS5_ILm5EEEtlA5_cLc80ELc107ELc114ELc117EEEELb1EEENS3_ImLi10ELi31ELi1EmXtlSP_tlSQ_Lc80ELc107ELc114ELc117EEEELb1EEEEEEEC2ERKSt16initializer_listImE+0x55>
    4fba:	b8 01 00 00 00       	mov    $0x1,%eax
    4fbf:	48 89 45 d8          	mov    %rax,-0x28(%rbp)
    4fc3:	eb 00                	jmp    4fc5 <_ZN4ustl9bitfields13BitFieldsImplImNS_8TypeListIJNS0_13FieldMetaDataImLi0ELi0ELi1EmXtlNS_4util11FixedStringILm4EEEtlA4_cLc120ELc56ELc55EEEELb1EEENS3_ImLi1ELi1ELi1EmXtlS6_tlS7_Lc83ELc115ELc101EEEELb1EEENS3_ImLi2ELi2ELi1EmXtlS6_tlS7_Lc65ELc118ELc120EEEELb1EEENS3_ImLi3ELi3ELi1EmXtlNS5_ILm7EEEtlA7_cLc66ELc110ELc100ELc82ELc101ELc103EEEELb1EEENS3_ImLi4ELi4ELi1EmXtlSB_tlSC_Lc66ELc110ELc100ELc67ELc115ELc114EEEELb1EEENS3_ImLi5ELi5ELi1EmXtlSB_tlSC_Lc79ELc112ELc77ELc97ELc115ELc107EEEELb1EEENS3_ImLi6ELi16ELi1EmXtlNS5_ILm9EEEtlA9_cLc90ELc109ELc109ELc72ELc105ELc50ELc53ELc54EEEELb1EEENS3_ImLi7ELi18ELi1EmXtlNS5_ILm8EEEtlA8_cLc72ELc105ELc49ELc54ELc90ELc109ELc109EEEELb1EEENS3_ImLi8ELi29ELi1EmXtlNS5_ILm3EEEtlA3_cLc80ELc48EEEELb1EEENS3_ImLi9ELi30ELi1EmXtlNS5_ILm5EEEtlA5_cLc80ELc107ELc114ELc117EEEELb1EEENS3_ImLi10ELi31ELi1EmXtlSP_tlSQ_Lc80ELc107ELc114ELc117EEEELb1EEEEEEEC2ERKSt16initializer_listImE+0x55>
    4fc5:	48 8b 55 e0          	mov    -0x20(%rbp),%rdx
    4fc9:	48 8b 7d e8          	mov    -0x18(%rbp),%rdi
    4fcd:	48 8b 75 d8          	mov    -0x28(%rbp),%rsi
    4fd1:	e8 0a 00 00 00       	call   4fe0 <_ZNSt3__16copy_nB8nn210000IPKmmPmTnNS_9enable_ifIXsr37__has_random_access_iterator_categoryIT_EE5valueEiE4typeELi0EEET1_S5_T0_S8_>
        }
    4fd6:	48 83 c4 30          	add    $0x30,%rsp
    4fda:	5d                   	pop    %rbp
    4fdb:	c3                   	ret
    4fdc:	0f 1f 40 00          	nopl   0x0(%rax)

0000000000004fe0 <_ZNSt3__16copy_nB8nn210000IPKmmPmTnNS_9enable_ifIXsr37__has_random_access_iterator_categoryIT_EE5valueEiE4typeELi0EEET1_S5_T0_S8_>:
template <class _InputIterator,
          class _Size,
          class _OutputIterator,
          __enable_if_t<__has_random_access_iterator_category<_InputIterator>::value, int> = 0>
inline _LIBCPP_HIDE_FROM_ABI _LIBCPP_CONSTEXPR_SINCE_CXX20 _OutputIterator
copy_n(_InputIterator __first, _Size __orig_n, _OutputIterator __result) {
    4fe0:	55                   	push   %rbp
    4fe1:	48 89 e5             	mov    %rsp,%rbp
    4fe4:	48 83 ec 20          	sub    $0x20,%rsp
    4fe8:	48 89 7d f8          	mov    %rdi,-0x8(%rbp)
    4fec:	48 89 75 f0          	mov    %rsi,-0x10(%rbp)
    4ff0:	48 89 55 e8          	mov    %rdx,-0x18(%rbp)
  typedef typename iterator_traits<_InputIterator>::difference_type difference_type;
  typedef decltype(std::__convert_to_integral(__orig_n)) _IntegralSize;
  _IntegralSize __n = __orig_n;
    4ff4:	48 8b 45 f0          	mov    -0x10(%rbp),%rax
    4ff8:	48 89 45 e0          	mov    %rax,-0x20(%rbp)
  return std::copy(__first, __first + difference_type(__n), __result);
    4ffc:	48 8b 7d f8          	mov    -0x8(%rbp),%rdi
    5000:	48 8b 75 f8          	mov    -0x8(%rbp),%rsi
    5004:	48 8b 45 e0          	mov    -0x20(%rbp),%rax
    5008:	48 c1 e0 03          	shl    $0x3,%rax
    500c:	48 01 c6             	add    %rax,%rsi
    500f:	48 8b 55 e8          	mov    -0x18(%rbp),%rdx
    5013:	e8 48 00 00 00       	call   5060 <_ZNSt3__14copyB8nn210000IPKmPmEET0_T_S5_S4_>
    5018:	48 83 c4 20          	add    $0x20,%rsp
    501c:	5d                   	pop    %rbp
    501d:	c3                   	ret
    501e:	66 90                	xchg   %ax,%ax

0000000000005020 <_ZNKSt16initializer_listImE5beginB8nn210000Ev>:

  _LIBCPP_HIDE_FROM_ABI _LIBCPP_CONSTEXPR_SINCE_CXX14 initializer_list() _NOEXCEPT : __begin_(nullptr), __size_(0) {}

  _LIBCPP_HIDE_FROM_ABI _LIBCPP_CONSTEXPR_SINCE_CXX14 size_t size() const _NOEXCEPT { return __size_; }

  _LIBCPP_HIDE_FROM_ABI _LIBCPP_CONSTEXPR_SINCE_CXX14 const _Ep* begin() const _NOEXCEPT { return __begin_; }
    5020:	55                   	push   %rbp
    5021:	48 89 e5             	mov    %rsp,%rbp
    5024:	48 89 7d f8          	mov    %rdi,-0x8(%rbp)
    5028:	48 8b 45 f8          	mov    -0x8(%rbp),%rax
    502c:	48 8b 00             	mov    (%rax),%rax
    502f:	5d                   	pop    %rbp
    5030:	c3                   	ret
    5031:	66 2e 0f 1f 84 00 00 	cs nopw 0x0(%rax,%rax,1)
    5038:	00 00 00 
    503b:	0f 1f 44 00 00       	nopl   0x0(%rax,%rax,1)

0000000000005040 <_ZNKSt16initializer_listImE4sizeB8nn210000Ev>:
  _LIBCPP_HIDE_FROM_ABI _LIBCPP_CONSTEXPR_SINCE_CXX14 size_t size() const _NOEXCEPT { return __size_; }
    5040:	55                   	push   %rbp
    5041:	48 89 e5             	mov    %rsp,%rbp
    5044:	48 89 7d f8          	mov    %rdi,-0x8(%rbp)
    5048:	48 8b 45 f8          	mov    -0x8(%rbp),%rax
    504c:	48 8b 40 08          	mov    0x8(%rax),%rax
    5050:	5d                   	pop    %rbp
    5051:	c3                   	ret
    5052:	66 2e 0f 1f 84 00 00 	cs nopw 0x0(%rax,%rax,1)
    5059:	00 00 00 
    505c:	0f 1f 40 00          	nopl   0x0(%rax)

0000000000005060 <_ZNSt3__14copyB8nn210000IPKmPmEET0_T_S5_S4_>:
  return std::__copy_move_unwrap_iters<__copy_impl>(std::move(__first), std::move(__last), std::move(__result));
}

template <class _InputIterator, class _OutputIterator>
_LIBCPP_HIDE_FROM_ABI _LIBCPP_CONSTEXPR_SINCE_CXX20 _OutputIterator
copy(_InputIterator __first, _InputIterator __last, _OutputIterator __result) {
    5060:	55                   	push   %rbp
    5061:	48 89 e5             	mov    %rsp,%rbp
    5064:	48 83 ec 30          	sub    $0x30,%rsp
    5068:	48 89 7d f8          	mov    %rdi,-0x8(%rbp)
    506c:	48 89 75 f0          	mov    %rsi,-0x10(%rbp)
    5070:	48 89 55 e8          	mov    %rdx,-0x18(%rbp)
  return std::__copy(__first, __last, __result).second;
    5074:	48 8b 7d f8          	mov    -0x8(%rbp),%rdi
    5078:	48 8b 75 f0          	mov    -0x10(%rbp),%rsi
    507c:	48 8b 55 e8          	mov    -0x18(%rbp),%rdx
    5080:	e8 1b 00 00 00       	call   50a0 <_ZNSt3__16__copyB8nn210000IPKmS2_PmEENS_4pairIT_T1_EES5_T0_S6_>
    5085:	48 89 45 d8          	mov    %rax,-0x28(%rbp)
    5089:	48 89 55 e0          	mov    %rdx,-0x20(%rbp)
    508d:	48 8b 45 e0          	mov    -0x20(%rbp),%rax
    5091:	48 83 c4 30          	add    $0x30,%rsp
    5095:	5d                   	pop    %rbp
    5096:	c3                   	ret
    5097:	66 0f 1f 84 00 00 00 	nopw   0x0(%rax,%rax,1)
    509e:	00 00 

00000000000050a0 <_ZNSt3__16__copyB8nn210000IPKmS2_PmEENS_4pairIT_T1_EES5_T0_S6_>:
__copy(_InIter __first, _Sent __last, _OutIter __result) {
    50a0:	55                   	push   %rbp
    50a1:	48 89 e5             	mov    %rsp,%rbp
    50a4:	48 83 ec 40          	sub    $0x40,%rsp
    50a8:	48 89 7d e8          	mov    %rdi,-0x18(%rbp)
    50ac:	48 89 75 e0          	mov    %rsi,-0x20(%rbp)
    50b0:	48 89 55 d8          	mov    %rdx,-0x28(%rbp)
    50b4:	48 8d 7d e8          	lea    -0x18(%rbp),%rdi
  return std::__copy_move_unwrap_iters<__copy_impl>(std::move(__first), std::move(__last), std::move(__result));
    50b8:	e8 73 01 00 00       	call   5230 <_ZNSt3__14moveB8nn210000IRPKmEEOu20__remove_reference_tIT_EOS4_>
    50bd:	48 8b 00             	mov    (%rax),%rax
    50c0:	48 89 45 c8          	mov    %rax,-0x38(%rbp)
    50c4:	48 8d 7d e0          	lea    -0x20(%rbp),%rdi
    50c8:	e8 63 01 00 00       	call   5230 <_ZNSt3__14moveB8nn210000IRPKmEEOu20__remove_reference_tIT_EOS4_>
    50cd:	48 8b 00             	mov    (%rax),%rax
    50d0:	48 89 45 d0          	mov    %rax,-0x30(%rbp)
    50d4:	48 8d 7d d8          	lea    -0x28(%rbp),%rdi
    50d8:	e8 63 01 00 00       	call   5240 <_ZNSt3__14moveB8nn210000IRPmEEOu20__remove_reference_tIT_EOS3_>
    50dd:	48 8b 7d c8          	mov    -0x38(%rbp),%rdi
    50e1:	48 8b 75 d0          	mov    -0x30(%rbp),%rsi
    50e5:	48 8b 10             	mov    (%rax),%rdx
    50e8:	e8 23 00 00 00       	call   5110 <_ZNSt3__124__copy_move_unwrap_itersB8nn210000INS_11__copy_implEPKmS3_PmTnNS_9enable_ifIXsr12__can_rewrapIT0_T2_EE5valueEiE4typeELi0EEENS_4pairIS6_S7_EES6_T1_S7_>
    50ed:	48 89 45 f0          	mov    %rax,-0x10(%rbp)
    50f1:	48 89 55 f8          	mov    %rdx,-0x8(%rbp)
    50f5:	48 8b 45 f0          	mov    -0x10(%rbp),%rax
    50f9:	48 8b 55 f8          	mov    -0x8(%rbp),%rdx
    50fd:	48 83 c4 40          	add    $0x40,%rsp
    5101:	5d                   	pop    %rbp
    5102:	c3                   	ret
    5103:	66 2e 0f 1f 84 00 00 	cs nopw 0x0(%rax,%rax,1)
    510a:	00 00 00 
    510d:	0f 1f 00             	nopl   (%rax)

0000000000005110 <_ZNSt3__124__copy_move_unwrap_itersB8nn210000INS_11__copy_implEPKmS3_PmTnNS_9enable_ifIXsr12__can_rewrapIT0_T2_EE5valueEiE4typeELi0EEENS_4pairIS6_S7_EES6_T1_S7_>:
          class _InIter,
          class _Sent,
          class _OutIter,
          __enable_if_t<__can_rewrap<_InIter, _OutIter>::value, int> = 0>
_LIBCPP_HIDE_FROM_ABI _LIBCPP_CONSTEXPR_SINCE_CXX17 pair<_InIter, _OutIter>
__copy_move_unwrap_iters(_InIter __first, _Sent __last, _OutIter __out_first) {
    5110:	55                   	push   %rbp
    5111:	48 89 e5             	mov    %rsp,%rbp
    5114:	48 81 ec a0 00 00 00 	sub    $0xa0,%rsp
    511b:	48 89 7d e8          	mov    %rdi,-0x18(%rbp)
    511f:	48 89 75 e0          	mov    %rsi,-0x20(%rbp)
    5123:	48 89 55 d8          	mov    %rdx,-0x28(%rbp)
  auto __range  = std::__unwrap_range(__first, std::move(__last));
    5127:	48 8b 45 e8          	mov    -0x18(%rbp),%rax
    512b:	48 89 85 68 ff ff ff 	mov    %rax,-0x98(%rbp)
    5132:	48 8d 7d e0          	lea    -0x20(%rbp),%rdi
    5136:	e8 f5 00 00 00       	call   5230 <_ZNSt3__14moveB8nn210000IRPKmEEOu20__remove_reference_tIT_EOS4_>
    513b:	48 8b bd 68 ff ff ff 	mov    -0x98(%rbp),%rdi
    5142:	48 8b 30             	mov    (%rax),%rsi
    5145:	e8 06 01 00 00       	call   5250 <_ZNSt3__114__unwrap_rangeB8nn210000IPKmS2_EEDaT_T0_>
    514a:	48 89 45 c8          	mov    %rax,-0x38(%rbp)
    514e:	48 8d 45 d0          	lea    -0x30(%rbp),%rax
    5152:	48 89 85 70 ff ff ff 	mov    %rax,-0x90(%rbp)
    5159:	48 89 55 d0          	mov    %rdx,-0x30(%rbp)
    515d:	48 8d 7d c8          	lea    -0x38(%rbp),%rdi
  auto __result = _Algorithm()(std::move(__range.first), std::move(__range.second), std::__unwrap_iter(__out_first));
    5161:	e8 ca 00 00 00       	call   5230 <_ZNSt3__14moveB8nn210000IRPKmEEOu20__remove_reference_tIT_EOS4_>
    5166:	48 8b bd 70 ff ff ff 	mov    -0x90(%rbp),%rdi
    516d:	48 8b 00             	mov    (%rax),%rax
    5170:	48 89 85 78 ff ff ff 	mov    %rax,-0x88(%rbp)
    5177:	e8 b4 00 00 00       	call   5230 <_ZNSt3__14moveB8nn210000IRPKmEEOu20__remove_reference_tIT_EOS4_>
    517c:	48 8b 00             	mov    (%rax),%rax
    517f:	48 89 45 80          	mov    %rax,-0x80(%rbp)
    5183:	48 8b 7d d8          	mov    -0x28(%rbp),%rdi
    5187:	e8 54 01 00 00       	call   52e0 <_ZNSt3__113__unwrap_iterB8nn210000IPmNS_18__unwrap_iter_implIS1_Lb1EEETnNS_9enable_ifIXsr21is_copy_constructibleIT_EE5valueEiE4typeELi0EEEDTclsrT0_8__unwrapclsr3stdE7declvalIS5_EEEES5_>
    518c:	48 8b b5 78 ff ff ff 	mov    -0x88(%rbp),%rsi
    5193:	48 8b 55 80          	mov    -0x80(%rbp),%rdx
    5197:	48 89 c1             	mov    %rax,%rcx
    519a:	48 8d 7d b7          	lea    -0x49(%rbp),%rdi
    519e:	e8 fd 00 00 00       	call   52a0 <_ZNKSt3__111__copy_implclB8nn210000IKmmTnNS_9enable_ifIXsr38__can_lower_copy_assignment_to_memmoveIT_T0_EE5valueEiE4typeELi0EEENS_4pairIPS4_PS5_EES9_S9_SA_>
    51a3:	48 89 45 b8          	mov    %rax,-0x48(%rbp)
    51a7:	48 8d 45 c0          	lea    -0x40(%rbp),%rax
    51ab:	48 89 45 90          	mov    %rax,-0x70(%rbp)
    51af:	48 89 55 c0          	mov    %rdx,-0x40(%rbp)
    51b3:	48 8d 7d e8          	lea    -0x18(%rbp),%rdi
  return std::make_pair(std::__rewrap_range<_Sent>(std::move(__first), std::move(__result.first)),
    51b7:	e8 74 00 00 00       	call   5230 <_ZNSt3__14moveB8nn210000IRPKmEEOu20__remove_reference_tIT_EOS4_>
    51bc:	48 8b 00             	mov    (%rax),%rax
    51bf:	48 89 45 88          	mov    %rax,-0x78(%rbp)
    51c3:	48 8d 7d b8          	lea    -0x48(%rbp),%rdi
    51c7:	e8 64 00 00 00       	call   5230 <_ZNSt3__14moveB8nn210000IRPKmEEOu20__remove_reference_tIT_EOS4_>
    51cc:	48 8b 7d 88          	mov    -0x78(%rbp),%rdi
    51d0:	48 8b 30             	mov    (%rax),%rsi
    51d3:	e8 78 01 00 00       	call   5350 <_ZNSt3__114__rewrap_rangeB8nn210000IPKmS2_S2_EET0_S3_T1_>
    51d8:	48 89 45 a8          	mov    %rax,-0x58(%rbp)
    51dc:	48 8d 7d d8          	lea    -0x28(%rbp),%rdi
                        std::__rewrap_iter(std::move(__out_first), std::move(__result.second)));
    51e0:	e8 5b 00 00 00       	call   5240 <_ZNSt3__14moveB8nn210000IRPmEEOu20__remove_reference_tIT_EOS3_>
    51e5:	48 8b 7d 90          	mov    -0x70(%rbp),%rdi
    51e9:	48 8b 00             	mov    (%rax),%rax
    51ec:	48 89 45 98          	mov    %rax,-0x68(%rbp)
    51f0:	e8 4b 00 00 00       	call   5240 <_ZNSt3__14moveB8nn210000IRPmEEOu20__remove_reference_tIT_EOS3_>
    51f5:	48 8b 7d 98          	mov    -0x68(%rbp),%rdi
    51f9:	48 8b 30             	mov    (%rax),%rsi
    51fc:	e8 8f 01 00 00       	call   5390 <_ZNSt3__113__rewrap_iterB8nn210000IPmS1_NS_18__unwrap_iter_implIS1_Lb1EEEEET_S4_T0_>
    5201:	48 89 45 a0          	mov    %rax,-0x60(%rbp)
    5205:	48 8d 7d a8          	lea    -0x58(%rbp),%rdi
    5209:	48 8d 75 a0          	lea    -0x60(%rbp),%rsi
  return std::make_pair(std::__rewrap_range<_Sent>(std::move(__first), std::move(__result.first)),
    520d:	e8 ee 00 00 00       	call   5300 <_ZNSt3__19make_pairB8nn210000IPKmPmEENS_4pairINS_18__unwrap_referenceIu7__decayIT_EE4typeENS5_Iu7__decayIT0_EE4typeEEEOS6_OSA_>
    5212:	48 89 45 f0          	mov    %rax,-0x10(%rbp)
    5216:	48 89 55 f8          	mov    %rdx,-0x8(%rbp)
    521a:	48 8b 45 f0          	mov    -0x10(%rbp),%rax
    521e:	48 8b 55 f8          	mov    -0x8(%rbp),%rdx
    5222:	48 81 c4 a0 00 00 00 	add    $0xa0,%rsp
    5229:	5d                   	pop    %rbp
    522a:	c3                   	ret
    522b:	0f 1f 44 00 00       	nopl   0x0(%rax,%rax,1)

0000000000005230 <_ZNSt3__14moveB8nn210000IRPKmEEOu20__remove_reference_tIT_EOS4_>:

_LIBCPP_BEGIN_NAMESPACE_STD

template <class _Tp>
[[__nodiscard__]] inline _LIBCPP_HIDE_FROM_ABI _LIBCPP_CONSTEXPR __libcpp_remove_reference_t<_Tp>&&
move(_LIBCPP_LIFETIMEBOUND _Tp&& __t) _NOEXCEPT {
    5230:	55                   	push   %rbp
    5231:	48 89 e5             	mov    %rsp,%rbp
    5234:	48 89 7d f8          	mov    %rdi,-0x8(%rbp)
  using _Up _LIBCPP_NODEBUG = __libcpp_remove_reference_t<_Tp>;
  return static_cast<_Up&&>(__t);
    5238:	48 8b 45 f8          	mov    -0x8(%rbp),%rax
    523c:	5d                   	pop    %rbp
    523d:	c3                   	ret
    523e:	66 90                	xchg   %ax,%ax

0000000000005240 <_ZNSt3__14moveB8nn210000IRPmEEOu20__remove_reference_tIT_EOS3_>:
move(_LIBCPP_LIFETIMEBOUND _Tp&& __t) _NOEXCEPT {
    5240:	55                   	push   %rbp
    5241:	48 89 e5             	mov    %rsp,%rbp
    5244:	48 89 7d f8          	mov    %rdi,-0x8(%rbp)
  return static_cast<_Up&&>(__t);
    5248:	48 8b 45 f8          	mov    -0x8(%rbp),%rax
    524c:	5d                   	pop    %rbp
    524d:	c3                   	ret
    524e:	66 90                	xchg   %ax,%ax

0000000000005250 <_ZNSt3__114__unwrap_rangeB8nn210000IPKmS2_EEDaT_T0_>:
    return std::__rewrap_iter(std::move(__orig_iter), std::move(__iter));
  }
};

template <class _Iter, class _Sent>
_LIBCPP_HIDE_FROM_ABI constexpr auto __unwrap_range(_Iter __first, _Sent __last) {
    5250:	55                   	push   %rbp
    5251:	48 89 e5             	mov    %rsp,%rbp
    5254:	48 83 ec 30          	sub    $0x30,%rsp
    5258:	48 89 7d e8          	mov    %rdi,-0x18(%rbp)
